

Microchip MPLAB XC8 Assembler V2.46 build 20240104201356 
                                                                                               Tue Feb 11 15:25:51 2025

Microchip MPLAB XC8 C Compiler v2.46 (Free license) build 20240104201356 Og1 
     1                           	processor	16F877
     2                           	pagewidth 120
     3                           	opt	flic
     4                           	psect	strings,global,class=STRING,delta=2,noexec
     5                           	psect	cinit,global,class=CODE,merge=1,delta=2
     6                           	psect	bssBANK0,global,class=BANK0,space=1,delta=1,noexec
     7                           	psect	bssBANK1,global,class=BANK1,space=1,delta=1,noexec
     8                           	psect	clrtext,global,class=CODE,delta=2
     9                           	psect	cstackBANK1,global,class=BANK1,space=1,delta=1,noexec
    10                           	psect	cstackCOMMON,global,class=COMMON,space=1,delta=1,noexec
    11                           	psect	cstackBANK0,global,class=BANK0,space=1,delta=1,noexec
    12                           	psect	maintext,global,class=CODE,split=1,delta=2
    13                           	psect	text1,local,class=CODE,merge=1,delta=2
    14                           	psect	text2,local,class=CODE,merge=1,delta=2
    15                           	psect	text3,local,class=CODE,merge=1,delta=2
    16                           	psect	text4,local,class=CODE,merge=1,delta=2
    17                           	psect	text5,local,class=CODE,merge=1,delta=2
    18                           	psect	text6,local,class=CODE,merge=1,delta=2
    19                           	psect	text7,local,class=CODE,merge=1,delta=2
    20                           	psect	text8,local,class=CODE,merge=1,delta=2
    21                           	psect	intentry,global,class=CODE,delta=2
    22                           	psect	text9,local,class=CODE,merge=1,delta=2
    23                           	psect	text10,local,class=CODE,merge=1,delta=2
    24                           	psect	text11,local,class=CODE,merge=1,delta=2
    25                           	psect	text12,local,class=CODE,merge=1,delta=2
    26                           	psect	text13,local,class=CODE,merge=1,delta=2
    27                           	psect	text14,local,class=CODE,merge=1,delta=2,group=1
    28                           	psect	text15,local,class=CODE,merge=1,delta=2,group=1
    29                           	psect	text16,local,class=CODE,merge=1,delta=2,group=1
    30                           	psect	text17,local,class=CODE,merge=1,delta=2,group=1
    31                           	psect	text18,local,class=CODE,merge=1,delta=2,group=1
    32                           	psect	text19,local,class=CODE,merge=1,delta=2
    33                           	psect	text20,local,class=CODE,merge=1,delta=2,group=1
    34                           	psect	text21,local,class=CODE,merge=1,delta=2,group=1
    35                           	psect	text22,local,class=CODE,merge=1,delta=2
    36                           	psect	text23,local,class=CODE,merge=1,delta=2
    37                           	psect	config,global,abs,ovrld,class=CONFIG,space=4,delta=2,noexec
    38                           	dabs	1,0x7E,2
    39     0000                     
    40                           ; Generated 12/10/2023 GMT
    41                           ; 
    42                           ; Copyright © 2023, Microchip Technology Inc. and its subsidiaries ("Microchip")
    43                           ; All rights reserved.
    44                           ; 
    45                           ; This software is developed by Microchip Technology Inc. and its subsidiaries ("Microch
      +                          ip").
    46                           ; 
    47                           ; Redistribution and use in source and binary forms, with or without modification, are
    48                           ; permitted provided that the following conditions are met:
    49                           ; 
    50                           ;     1. Redistributions of source code must retain the above copyright notice, this lis
      +                          t of
    51                           ;        conditions and the following disclaimer.
    52                           ; 
    53                           ;     2. Redistributions in binary form must reproduce the above copyright notice, this 
      +                          list
    54                           ;        of conditions and the following disclaimer in the documentation and/or other
    55                           ;        materials provided with the distribution. Publication is not required when
    56                           ;        this file is used in an embedded application.
    57                           ; 
    58                           ;     3. Microchip's name may not be used to endorse or promote products derived from th
      +                          is
    59                           ;        software without specific prior written permission.
    60                           ; 
    61                           ; THIS SOFTWARE IS PROVIDED BY MICROCHIP "AS IS" AND ANY EXPRESS OR IMPLIED WARRANTIES,
    62                           ; INCLUDING, BUT NOT LIMITED TO, THE IMPLIED WARRANTIES OF MERCHANTABILITY AND FITNESS F
      +                          OR
    63                           ; PURPOSE ARE DISCLAIMED.  IN NO EVENT SHALL MICROCHIP BE LIABLE FOR ANY DIRECT, INDIREC
      +                          T,
    64                           ; INCIDENTAL, SPECIAL, EXEMPLARY, OR CONSEQUENTIAL DAMAGES (INCLUDING BUT NOT LIMITED TO
    65                           ; PROCUREMENT OF SUBSTITUTE GOODS OR SERVICES; LOSS OF USE, DATA OR PROFITS; OR BUSINESS
    66                           ; INTERRUPTION) HOWSOEVER CAUSED AND ON ANY THEORY OF LIABILITY, WHETHER IN CONTRACT, ST
      +                          RICT
    67                           ; LIABILITY, OR TORT (INCLUDING NEGLIGENCE OR OTHERWISE) ARISING IN ANY WAY OUT OF THE U
      +                          SE OF
    68                           ; THIS SOFTWARE, EVEN IF ADVISED OF THE POSSIBILITY OF SUCH DAMAGE.
    69                           ; 
    70                           ; 
    71                           ; Code-generator required, PIC16F877 Definitions
    72                           ; 
    73                           ; SFR Addresses
    74     0000                     	;# 
    75     0001                     	;# 
    76     0002                     	;# 
    77     0003                     	;# 
    78     0004                     	;# 
    79     0005                     	;# 
    80     0006                     	;# 
    81     0007                     	;# 
    82     0008                     	;# 
    83     0009                     	;# 
    84     000A                     	;# 
    85     000B                     	;# 
    86     000C                     	;# 
    87     000D                     	;# 
    88     000E                     	;# 
    89     000E                     	;# 
    90     000F                     	;# 
    91     0010                     	;# 
    92     0011                     	;# 
    93     0012                     	;# 
    94     0013                     	;# 
    95     0014                     	;# 
    96     0015                     	;# 
    97     0015                     	;# 
    98     0016                     	;# 
    99     0017                     	;# 
   100     0018                     	;# 
   101     0019                     	;# 
   102     001A                     	;# 
   103     001B                     	;# 
   104     001B                     	;# 
   105     001C                     	;# 
   106     001D                     	;# 
   107     001E                     	;# 
   108     001F                     	;# 
   109     0081                     	;# 
   110     0085                     	;# 
   111     0086                     	;# 
   112     0087                     	;# 
   113     0088                     	;# 
   114     0089                     	;# 
   115     008C                     	;# 
   116     008D                     	;# 
   117     008E                     	;# 
   118     0091                     	;# 
   119     0092                     	;# 
   120     0093                     	;# 
   121     0094                     	;# 
   122     0098                     	;# 
   123     0099                     	;# 
   124     009E                     	;# 
   125     009F                     	;# 
   126     010C                     	;# 
   127     010D                     	;# 
   128     010E                     	;# 
   129     010F                     	;# 
   130     018C                     	;# 
   131     018D                     	;# 
   132     0000                     	;# 
   133     0001                     	;# 
   134     0002                     	;# 
   135     0003                     	;# 
   136     0004                     	;# 
   137     0005                     	;# 
   138     0006                     	;# 
   139     0007                     	;# 
   140     0008                     	;# 
   141     0009                     	;# 
   142     000A                     	;# 
   143     000B                     	;# 
   144     000C                     	;# 
   145     000D                     	;# 
   146     000E                     	;# 
   147     000E                     	;# 
   148     000F                     	;# 
   149     0010                     	;# 
   150     0011                     	;# 
   151     0012                     	;# 
   152     0013                     	;# 
   153     0014                     	;# 
   154     0015                     	;# 
   155     0015                     	;# 
   156     0016                     	;# 
   157     0017                     	;# 
   158     0018                     	;# 
   159     0019                     	;# 
   160     001A                     	;# 
   161     001B                     	;# 
   162     001B                     	;# 
   163     001C                     	;# 
   164     001D                     	;# 
   165     001E                     	;# 
   166     001F                     	;# 
   167     0081                     	;# 
   168     0085                     	;# 
   169     0086                     	;# 
   170     0087                     	;# 
   171     0088                     	;# 
   172     0089                     	;# 
   173     008C                     	;# 
   174     008D                     	;# 
   175     008E                     	;# 
   176     0091                     	;# 
   177     0092                     	;# 
   178     0093                     	;# 
   179     0094                     	;# 
   180     0098                     	;# 
   181     0099                     	;# 
   182     009E                     	;# 
   183     009F                     	;# 
   184     010C                     	;# 
   185     010D                     	;# 
   186     010E                     	;# 
   187     010F                     	;# 
   188     018C                     	;# 
   189     018D                     	;# 
   190     0019                     _TXREG	set	25
   191     0018                     _RCSTAbits	set	24
   192     000B                     _INTCON	set	11
   193     0012                     _T2CON	set	18
   194     000B                     _INTCONbits	set	11
   195     0006                     _PORTBbits	set	6
   196     000C                     _PIR1bits	set	12
   197     001E                     _ADRESH	set	30
   198     001F                     _ADCON0bits	set	31
   199     001F                     _ADCON0	set	31
   200     0009                     _PORTEbits	set	9
   201     0008                     _PORTD	set	8
   202     0064                     _TXIF	set	100
   203     0098                     _TXSTAbits	set	152
   204     0099                     _SPBRG	set	153
   205     0092                     _PR2	set	146
   206     0081                     _OPTION_REG	set	129
   207     0086                     _TRISB	set	134
   208     0089                     _TRISE	set	137
   209     0088                     _TRISD	set	136
   210     008C                     _PIE1bits	set	140
   211     009E                     _ADRESL	set	158
   212     009F                     _ADCON1	set	159
   213     043F                     _TRISC7	set	1087
   214     043E                     _TRISC6	set	1086
   215                           
   216                           	psect	strings
   217     0800                     __pstrings:
   218     0800                     stringtab:
   219     0800                     __stringtab:
   220                           
   221                           ;	String table - string pointers are 1 byte each
   222     0800  1BFF               	btfsc	btemp+1,7
   223     0801  280A               	ljmp	stringcode
   224     0802  1383               	bcf	3,7
   225     0803  187F               	btfsc	btemp+1,0
   226     0804  1783               	bsf	3,7
   227     0805  0800               	movf	0,w
   228     0806  0A84               	incf	4,f
   229     0807  1903               	skipnz
   230     0808  0AFF               	incf	btemp+1,f
   231     0809  0008               	return
   232     080A                     stringcode:
   233     080A                     stringdir:
   234     080A  3008               	movlw	high stringdir
   235     080B  008A               	movwf	10
   236     080C  0804               	movf	4,w
   237     080D  0A84               	incf	4,f
   238     080E  0782               	addwf	2,f
   239     080F                     __stringbase:
   240     080F  3400               	retlw	0
   241     0810                     __end_of__stringtab:
   242     0810                     STR_4:
   243     0810  3454               	retlw	84	;'T'
   244     0811  3465               	retlw	101	;'e'
   245     0812  346E               	retlw	110	;'n'
   246     0813  3473               	retlw	115	;'s'
   247     0814  3461               	retlw	97	;'a'
   248     0815  346F               	retlw	111	;'o'
   249     0816  343A               	retlw	58	;':'
   250     0817  3420               	retlw	32	;' '
   251     0818  3400               	retlw	0
   252     0819                     STR_3:
   253     0819  346F               	retlw	111	;'o'
   254     081A  346B               	retlw	107	;'k'
   255     081B  3421               	retlw	33	;'!'
   256     081C  3400               	retlw	0
   257     081D                     STR_2:
   258     081D  3420               	retlw	32	;' '
   259     081E  3456               	retlw	86	;'V'
   260     081F  3400               	retlw	0
   261     0820                     STR_1:
   262     0820  342C               	retlw	44	;','
   263     0821  3400               	retlw	0
   264                           
   265                           	psect	cinit
   266     0015                     start_initialization:	
   267                           ; #config settings
   268                           
   269     0015                     __initialization:
   270                           
   271                           ; Clear objects allocated to BANK0
   272     0015  1383               	bcf	3,7	;select IRP bank0
   273     0016  3058               	movlw	low __pbssBANK0
   274     0017  0084               	movwf	4
   275     0018  3065               	movlw	low (__pbssBANK0+13)
   276     0019  120A  158A  257E  120A  118A  	fcall	clear_ram0
   277                           
   278                           ; Clear objects allocated to BANK1
   279     001E  30A0               	movlw	low __pbssBANK1
   280     001F  0084               	movwf	4
   281     0020  30B1               	movlw	low (__pbssBANK1+17)
   282     0021  120A  158A  257E  120A  118A  	fcall	clear_ram0
   283     0026                     end_of_initialization:	
   284                           ;End of C runtime variable initialization code
   285                           
   286     0026                     __end_of__initialization:
   287     0026  0183               	clrf	3
   288     0027  120A  118A  2FC0   	ljmp	_main	;jump to C main() function
   289                           
   290                           	psect	bssBANK0
   291     0058                     __pbssBANK0:
   292     0058                     _result:
   293     0058                     	ds	4
   294     005C                     _controle_led:
   295     005C                     	ds	2
   296     005E                     _count:
   297     005E                     	ds	2
   298     0060                     _read:
   299     0060                     	ds	2
   300     0062                     _leportb:
   301     0062                     	ds	1
   302     0063                     _uart_data_ready:
   303     0063                     	ds	1
   304     0064                     _uart_index:
   305     0064                     	ds	1
   306                           
   307                           	psect	bssBANK1
   308     00A0                     __pbssBANK1:
   309     00A0                     _uart_received_data:
   310     00A0                     	ds	17
   311                           
   312                           	psect	clrtext
   313     0D7E                     clear_ram0:	
   314                           ;	Called with FSR containing the base address, and
   315                           ;	W with the last address+1
   316                           
   317     0D7E  0064               	clrwdt	;clear the watchdog before getting into this loop
   318     0D7F                     clrloop0:
   319     0D7F  0180               	clrf	0	;clear RAM location pointed to by FSR
   320     0D80  0A84               	incf	4,f	;increment pointer
   321     0D81  0604               	xorwf	4,w	;XOR with final address
   322     0D82  1903               	btfsc	3,2	;have we reached the end yet?
   323     0D83  3400               	retlw	0	;all done for this memory range, return
   324     0D84  0604               	xorwf	4,w	;XOR again to restore value
   325     0D85  2D7F               	goto	clrloop0	;do the next byte
   326                           
   327                           	psect	cstackBANK1
   328     00B1                     __pcstackBANK1:
   329     00B1                     ??_UART_Init:
   330     00B1                     ??_lcd_nibble:	
   331                           ; 1 bytes @ 0x0
   332                           
   333     00B1                     ??_adc_config:	
   334                           ; 1 bytes @ 0x0
   335                           
   336                           
   337                           ; 1 bytes @ 0x0
   338     00B1                     	ds	1
   339     00B2                     lcd_nibble@data:
   340                           
   341                           ; 1 bytes @ 0x1
   342     00B2                     	ds	1
   343     00B3                     ??_lcd_command:
   344     00B3                     ??_lcd_data:	
   345                           ; 1 bytes @ 0x2
   346                           
   347                           
   348                           ; 1 bytes @ 0x2
   349     00B3                     	ds	1
   350     00B4                     lcd_data@data:
   351                           
   352                           ; 1 bytes @ 0x3
   353     00B4                     	ds	1
   354     00B5                     ?_lcd_string:
   355     00B5                     lcd_command@cmd:	
   356                           ; 1 bytes @ 0x4
   357                           
   358     00B5                     lcd_string@str:	
   359                           ; 1 bytes @ 0x4
   360                           
   361                           
   362                           ; 2 bytes @ 0x4
   363     00B5                     	ds	1
   364     00B6                     ??_lcd_initialise:
   365                           
   366                           ; 1 bytes @ 0x5
   367     00B6                     	ds	1
   368     00B7                     lcd_string@num:
   369                           
   370                           ; 1 bytes @ 0x6
   371     00B7                     	ds	1
   372     00B8                     ??_lcd_string:
   373     00B8                     lcd_string@i:	
   374                           ; 1 bytes @ 0x7
   375                           
   376                           
   377                           ; 1 bytes @ 0x7
   378     00B8                     	ds	1
   379     00B9                     ??_main:
   380                           
   381                           	psect	cstackCOMMON
   382     0070                     __pcstackCOMMON:	
   383                           ; 1 bytes @ 0x8
   384                           
   385     0070                     ?_UART_SendString:
   386     0070                     ?_UART_Init:	
   387                           ; 1 bytes @ 0x0
   388                           
   389     0070                     ?_lcd_nibble:	
   390                           ; 1 bytes @ 0x0
   391                           
   392     0070                     ?_lcd_command:	
   393                           ; 1 bytes @ 0x0
   394                           
   395     0070                     ?_lcd_data:	
   396                           ; 1 bytes @ 0x0
   397                           
   398     0070                     ?_lcd_initialise:	
   399                           ; 1 bytes @ 0x0
   400                           
   401     0070                     ?_adc_config:	
   402                           ; 1 bytes @ 0x0
   403                           
   404     0070                     ?_isr:	
   405                           ; 1 bytes @ 0x0
   406                           
   407     0070                     ?_main:	
   408                           ; 1 bytes @ 0x0
   409                           
   410     0070                     ?_UART_SendChar:	
   411                           ; 1 bytes @ 0x0
   412                           
   413     0070                     ??_UART_SendChar:	
   414                           ; 1 bytes @ 0x0
   415                           
   416     0070                     ?i1_lcd_nibble:	
   417                           ; 1 bytes @ 0x0
   418                           
   419     0070                     ??i1_lcd_nibble:	
   420                           ; 1 bytes @ 0x0
   421                           
   422     0070                     ?i1_lcd_command:	
   423                           ; 1 bytes @ 0x0
   424                           
   425     0070                     ?i1_lcd_data:	
   426                           ; 1 bytes @ 0x0
   427                           
   428     0070                     ?__Umul8_16:	
   429                           ; 1 bytes @ 0x0
   430                           
   431     0070                     ?_adc_read:	
   432                           ; 2 bytes @ 0x0
   433                           
   434     0070                     ?___lwmod:	
   435                           ; 2 bytes @ 0x0
   436                           
   437     0070                     ?___xxtofl:	
   438                           ; 2 bytes @ 0x0
   439                           
   440     0070                     UART_SendChar@data:	
   441                           ; 4 bytes @ 0x0
   442                           
   443     0070                     __Umul8_16@multiplicand:	
   444                           ; 1 bytes @ 0x0
   445                           
   446     0070                     ___lwmod@divisor:	
   447                           ; 1 bytes @ 0x0
   448                           
   449     0070                     ___xxtofl@val:	
   450                           ; 2 bytes @ 0x0
   451                           
   452                           
   453                           ; 4 bytes @ 0x0
   454     0070                     	ds	1
   455     0071                     ??_UART_SendString:
   456     0071                     UART_SendString@str:	
   457                           ; 1 bytes @ 0x1
   458                           
   459     0071                     i1lcd_nibble@data:	
   460                           ; 1 bytes @ 0x1
   461                           
   462                           
   463                           ; 1 bytes @ 0x1
   464     0071                     	ds	1
   465     0072                     ??__Umul8_16:
   466     0072                     ??_adc_read:	
   467                           ; 1 bytes @ 0x2
   468                           
   469     0072                     ??i1_lcd_command:	
   470                           ; 1 bytes @ 0x2
   471                           
   472     0072                     ??i1_lcd_data:	
   473                           ; 1 bytes @ 0x2
   474                           
   475     0072                     ___lwmod@dividend:	
   476                           ; 1 bytes @ 0x2
   477                           
   478                           
   479                           ; 2 bytes @ 0x2
   480     0072                     	ds	1
   481     0073                     i1lcd_data@data:
   482                           
   483                           ; 1 bytes @ 0x3
   484     0073                     	ds	1
   485     0074                     ??___lwmod:
   486     0074                     ??___xxtofl:	
   487                           ; 1 bytes @ 0x4
   488                           
   489     0074                     ?i1_lcd_string:	
   490                           ; 1 bytes @ 0x4
   491                           
   492     0074                     ___lwmod@counter:	
   493                           ; 1 bytes @ 0x4
   494                           
   495     0074                     i1lcd_command@cmd:	
   496                           ; 1 bytes @ 0x4
   497                           
   498     0074                     __Umul8_16@product:	
   499                           ; 1 bytes @ 0x4
   500                           
   501     0074                     i1lcd_string@str:	
   502                           ; 2 bytes @ 0x4
   503                           
   504                           
   505                           ; 2 bytes @ 0x4
   506     0074                     	ds	1
   507     0075                     ?___lwdiv:
   508     0075                     ___lwdiv@divisor:	
   509                           ; 2 bytes @ 0x5
   510                           
   511                           
   512                           ; 2 bytes @ 0x5
   513     0075                     	ds	1
   514     0076                     i1lcd_string@num:
   515     0076                     __Umul8_16@word_mpld:	
   516                           ; 1 bytes @ 0x6
   517                           
   518                           
   519                           ; 2 bytes @ 0x6
   520     0076                     	ds	1
   521     0077                     ??i1_lcd_string:
   522     0077                     i1lcd_string@i:	
   523                           ; 1 bytes @ 0x7
   524                           
   525     0077                     ___lwdiv@dividend:	
   526                           ; 1 bytes @ 0x7
   527                           
   528                           
   529                           ; 2 bytes @ 0x7
   530     0077                     	ds	1
   531     0078                     __Umul8_16@multiplier:
   532     0078                     ___xxtofl@sign:	
   533                           ; 1 bytes @ 0x8
   534                           
   535                           
   536                           ; 1 bytes @ 0x8
   537     0078                     	ds	1
   538     0079                     ??___lwdiv:
   539     0079                     ___xxtofl@exp:	
   540                           ; 1 bytes @ 0x9
   541                           
   542     0079                     ___lwdiv@quotient:	
   543                           ; 1 bytes @ 0x9
   544                           
   545                           
   546                           ; 2 bytes @ 0x9
   547     0079                     	ds	1
   548     007A                     ___xxtofl@arg:
   549                           
   550                           ; 4 bytes @ 0xA
   551     007A                     	ds	1
   552     007B                     ___lwdiv@counter:
   553                           
   554                           ; 1 bytes @ 0xB
   555     007B                     	ds	3
   556     007E                     ??_lcd_print:
   557                           
   558                           	psect	cstackBANK0
   559     0020                     __pcstackBANK0:	
   560                           ; 1 bytes @ 0xE
   561                           
   562     0020                     ?___flmul:
   563     0020                     ___flmul@b:	
   564                           ; 4 bytes @ 0x0
   565                           
   566                           
   567                           ; 4 bytes @ 0x0
   568     0020                     	ds	4
   569     0024                     ___flmul@a:
   570                           
   571                           ; 4 bytes @ 0x4
   572     0024                     	ds	4
   573     0028                     ??___flmul:
   574                           
   575                           ; 1 bytes @ 0x8
   576     0028                     	ds	5
   577     002D                     ___flmul@sign:
   578                           
   579                           ; 1 bytes @ 0xD
   580     002D                     	ds	1
   581     002E                     ___flmul@grs:
   582                           
   583                           ; 4 bytes @ 0xE
   584     002E                     	ds	4
   585     0032                     ___flmul@aexp:
   586                           
   587                           ; 1 bytes @ 0x12
   588     0032                     	ds	1
   589     0033                     ___flmul@bexp:
   590                           
   591                           ; 1 bytes @ 0x13
   592     0033                     	ds	1
   593     0034                     ___flmul@prod:
   594                           
   595                           ; 4 bytes @ 0x14
   596     0034                     	ds	4
   597     0038                     ___flmul@temp:
   598                           
   599                           ; 2 bytes @ 0x18
   600     0038                     	ds	2
   601     003A                     ?___fltol:
   602     003A                     ?___fldiv:	
   603                           ; 4 bytes @ 0x1A
   604                           
   605     003A                     ___fltol@f1:	
   606                           ; 4 bytes @ 0x1A
   607                           
   608     003A                     ___fldiv@a:	
   609                           ; 4 bytes @ 0x1A
   610                           
   611                           
   612                           ; 4 bytes @ 0x1A
   613     003A                     	ds	4
   614     003E                     ??___fltol:
   615     003E                     ___fldiv@b:	
   616                           ; 1 bytes @ 0x1E
   617                           
   618                           
   619                           ; 4 bytes @ 0x1E
   620     003E                     	ds	4
   621     0042                     ??___fldiv:
   622     0042                     ___fltol@sign1:	
   623                           ; 1 bytes @ 0x22
   624                           
   625                           
   626                           ; 1 bytes @ 0x22
   627     0042                     	ds	1
   628     0043                     ___fltol@exp1:
   629                           
   630                           ; 1 bytes @ 0x23
   631     0043                     	ds	1
   632     0044                     ?_lcd_print:
   633     0044                     lcd_print@read:	
   634                           ; 1 bytes @ 0x24
   635                           
   636                           
   637                           ; 4 bytes @ 0x24
   638     0044                     	ds	3
   639     0047                     ___fldiv@rem:
   640                           
   641                           ; 4 bytes @ 0x27
   642     0047                     	ds	1
   643     0048                     lcd_print@buffer:
   644                           
   645                           ; 4 bytes @ 0x28
   646     0048                     	ds	3
   647     004B                     ___fldiv@sign:
   648                           
   649                           ; 1 bytes @ 0x2B
   650     004B                     	ds	1
   651     004C                     lcd_print@int_read:
   652     004C                     ___fldiv@new_exp:	
   653                           ; 2 bytes @ 0x2C
   654                           
   655                           
   656                           ; 2 bytes @ 0x2C
   657     004C                     	ds	2
   658     004E                     ___fldiv@grs:
   659                           
   660                           ; 4 bytes @ 0x2E
   661     004E                     	ds	4
   662     0052                     ___fldiv@bexp:
   663                           
   664                           ; 1 bytes @ 0x32
   665     0052                     	ds	1
   666     0053                     ___fldiv@aexp:
   667                           
   668                           ; 1 bytes @ 0x33
   669     0053                     	ds	1
   670     0054                     ??_isr:
   671                           
   672                           ; 1 bytes @ 0x34
   673     0054                     	ds	4
   674                           
   675                           	psect	maintext
   676     07C0                     __pmaintext:	
   677 ;;
   678 ;;Main: autosize = 0, tempsize = 0, incstack = 0, save=0
   679 ;;
   680 ;; *************** function _main *****************
   681 ;; Defined at:
   682 ;;		line 180 in file "main.c"
   683 ;; Parameters:    Size  Location     Type
   684 ;;		None
   685 ;; Auto vars:     Size  Location     Type
   686 ;;		None
   687 ;; Return value:  Size  Location     Type
   688 ;;                  1    wreg      void 
   689 ;; Registers used:
   690 ;;		wreg, fsr0l, fsr0h, status,2, status,0, btemp+1, pclath, cstack
   691 ;; Tracked objects:
   692 ;;		On entry : B00/0
   693 ;;		On exit  : 0/0
   694 ;;		Unchanged: 0/0
   695 ;; Data sizes:     COMMON   BANK0   BANK1   BANK3   BANK2
   696 ;;      Params:         0       0       0       0       0
   697 ;;      Locals:         0       0       0       0       0
   698 ;;      Temps:          0       0       0       0       0
   699 ;;      Totals:         0       0       0       0       0
   700 ;;Total ram usage:        0 bytes
   701 ;; Hardware stack levels required when called: 8
   702 ;; This function calls:
   703 ;;		_UART_Init
   704 ;;		_adc_config
   705 ;;		_lcd_command
   706 ;;		_lcd_initialise
   707 ;;		_lcd_string
   708 ;; This function is called by:
   709 ;;		Startup code after reset
   710 ;; This function uses a non-reentrant model
   711 ;;
   712                           
   713     07C0                     _main:	
   714                           ;psect for function _main
   715                           
   716     07C0                     l1893:	
   717                           ;incstack = 0
   718                           ; Regs used in _main: [wreg-fsr0h+status,2+status,0+btemp+1+pclath+cstack]
   719                           
   720                           
   721                           ;main.c: 182:     TRISD = 0x00;
   722     07C0  1683               	bsf	3,5	;RP0=1, select bank1
   723     07C1  1303               	bcf	3,6	;RP1=0, select bank1
   724     07C2  0188               	clrf	8	;volatile
   725                           
   726                           ;main.c: 183:     TRISE = 0x00;
   727     07C3  0189               	clrf	9	;volatile
   728     07C4                     l1895:
   729                           
   730                           ;main.c: 184:     TRISB = 0x01;
   731     07C4  3001               	movlw	1
   732     07C5  0086               	movwf	6	;volatile
   733     07C6                     l1897:
   734                           
   735                           ;main.c: 185:     PORTBbits.RB1 = 0;
   736     07C6  1283               	bcf	3,5	;RP0=0, select bank0
   737     07C7  1303               	bcf	3,6	;RP1=0, select bank0
   738     07C8  1086               	bcf	6,1	;volatile
   739     07C9                     l1899:
   740                           
   741                           ;main.c: 187:     lcd_initialise();
   742     07C9  120A  158A  279B  120A  118A  	fcall	_lcd_initialise
   743     07CE                     l1901:
   744                           
   745                           ;main.c: 188:     lcd_command(0x80);
   746     07CE  3080               	movlw	128
   747     07CF  120A  158A  26F3  120A  118A  	fcall	_lcd_command
   748     07D4                     l1903:
   749                           
   750                           ;main.c: 189:     lcd_string("Tensao: ", 8);
   751     07D4  3001               	movlw	(low ((STR_4-__stringbase)| (0+32768)))& (0+255)
   752     07D5  1683               	bsf	3,5	;RP0=1, select bank1
   753     07D6  1303               	bcf	3,6	;RP1=0, select bank1
   754     07D7  00B5               	movwf	lcd_string@str^(0+128)
   755     07D8  3080               	movlw	128
   756     07D9  00B6               	movwf	(lcd_string@str+1)^(0+128)
   757     07DA  3008               	movlw	8
   758     07DB  00B7               	movwf	lcd_string@num^(0+128)
   759     07DC  120A  158A  2681  120A  118A  	fcall	_lcd_string
   760     07E1                     l1905:
   761                           
   762                           ;main.c: 191:     adc_config();
   763     07E1  120A  158A  2586  120A  118A  	fcall	_adc_config
   764     07E6                     l1907:
   765                           
   766                           ;main.c: 192:     UART_Init();
   767     07E6  120A  158A  2599  120A  118A  	fcall	_UART_Init
   768     07EB                     l1909:
   769                           
   770                           ;main.c: 194:     T2CON = 0b01111111;
   771     07EB  307F               	movlw	127
   772     07EC  1283               	bcf	3,5	;RP0=0, select bank0
   773     07ED  1303               	bcf	3,6	;RP1=0, select bank0
   774     07EE  0092               	movwf	18	;volatile
   775     07EF                     l1911:
   776                           
   777                           ;main.c: 195:     OPTION_REG = 0b01001000;
   778     07EF  3048               	movlw	72
   779     07F0  1683               	bsf	3,5	;RP0=1, select bank1
   780     07F1  1303               	bcf	3,6	;RP1=0, select bank1
   781     07F2  0081               	movwf	1	;volatile
   782     07F3                     l1913:
   783                           
   784                           ;main.c: 196:     INTCON = 0b11011000;
   785     07F3  30D8               	movlw	216
   786     07F4  008B               	movwf	11	;volatile
   787     07F5                     l1915:
   788                           
   789                           ;main.c: 197:     PR2 = 0xFF;
   790     07F5  30FF               	movlw	255
   791     07F6  0092               	movwf	18	;volatile
   792     07F7                     l1917:
   793                           
   794                           ;main.c: 198:     PIE1bits.TMR2IE = 0;
   795     07F7  108C               	bcf	12,1	;volatile
   796     07F8                     l1919:
   797                           
   798                           ;main.c: 199:     PIR1bits.TMR2IF = 0;
   799     07F8  1283               	bcf	3,5	;RP0=0, select bank0
   800     07F9  1303               	bcf	3,6	;RP1=0, select bank0
   801     07FA  108C               	bcf	12,1	;volatile
   802     07FB                     l115:	
   803                           ;main.c: 201:     while (1)
   804                           
   805     07FB                     l116:	
   806                           ;main.c: 202:     {;main.c: 207:     }
   807                           
   808     07FB  2FFB               	goto	l115
   809     07FC  120A  118A  2812   	ljmp	start
   810     07FF                     __end_of_main:
   811                           
   812                           	psect	text1
   813     0E81                     __ptext1:	
   814 ;; *************** function _lcd_string *****************
   815 ;; Defined at:
   816 ;;		line 53 in file "main.c"
   817 ;; Parameters:    Size  Location     Type
   818 ;;  str             2    4[BANK1 ] PTR const unsigned char 
   819 ;;		 -> STR_4(9), STR_2(3), STR_1(2), lcd_print@buffer(4), 
   820 ;;  num             1    6[BANK1 ] unsigned char 
   821 ;; Auto vars:     Size  Location     Type
   822 ;;  i               1    7[BANK1 ] unsigned char 
   823 ;; Return value:  Size  Location     Type
   824 ;;                  1    wreg      void 
   825 ;; Registers used:
   826 ;;		wreg, fsr0l, fsr0h, status,2, status,0, btemp+1, pclath, cstack
   827 ;; Tracked objects:
   828 ;;		On entry : 0/0
   829 ;;		On exit  : 0/0
   830 ;;		Unchanged: 0/0
   831 ;; Data sizes:     COMMON   BANK0   BANK1   BANK3   BANK2
   832 ;;      Params:         0       0       3       0       0
   833 ;;      Locals:         0       0       1       0       0
   834 ;;      Temps:          0       0       0       0       0
   835 ;;      Totals:         0       0       4       0       0
   836 ;;Total ram usage:        4 bytes
   837 ;; Hardware stack levels used: 1
   838 ;; Hardware stack levels required when called: 7
   839 ;; This function calls:
   840 ;;		_lcd_data
   841 ;; This function is called by:
   842 ;;		_main
   843 ;; This function uses a non-reentrant model
   844 ;;
   845                           
   846     0E81                     _lcd_string:	
   847                           ;psect for function _lcd_string
   848                           
   849     0E81                     l1597:	
   850                           ;incstack = 0
   851 ;; using string table level
   852                           ; Regs used in _lcd_string: [wreg-fsr0h+status,2+status,0+btemp+1+pclath+cstack]
   853                           
   854                           
   855                           ;main.c: 54:     lcd_nibble(0x20);;main.c: 55:     _delay((unsigned long)((100)*(2000000
      +                          0/4000000.0)));
   856     0E81  1683               	bsf	3,5	;RP0=1, select bank1
   857     0E82  1303               	bcf	3,6	;RP1=0, select bank1
   858     0E83  01B8               	clrf	lcd_string@i^(0+128)
   859     0E84  2E9E               	goto	l1603
   860     0E85                     l1599:
   861                           
   862                           ;main.c: 56: 
   863     0E85  0838               	movf	lcd_string@i^(0+128),w
   864     0E86  0735               	addwf	lcd_string@str^(0+128),w
   865     0E87  0084               	movwf	4
   866     0E88  0836               	movf	(lcd_string@str+1)^(0+128),w
   867     0E89  1803               	skipnc
   868     0E8A  0A36               	incf	(lcd_string@str+1)^(0+128),w
   869     0E8B  1283               	bcf	3,5	;RP0=0, select bank0
   870     0E8C  1303               	bcf	3,6	;RP1=0, select bank0
   871     0E8D  00FF               	movwf	btemp+1
   872     0E8E  120A  158A  2000  120A  158A  	fcall	stringtab
   873     0E93  120A  158A  26CC  120A  158A  	fcall	_lcd_data
   874     0E98                     l1601:
   875                           
   876                           ;main.c: 57:     lcd_command(0x28);
   877     0E98  3001               	movlw	1
   878     0E99  00FF               	movwf	btemp+1
   879     0E9A  087F               	movf	btemp+1,w
   880     0E9B  1683               	bsf	3,5	;RP0=1, select bank1
   881     0E9C  1303               	bcf	3,6	;RP1=0, select bank1
   882     0E9D  07B8               	addwf	lcd_string@i^(0+128),f
   883     0E9E                     l1603:
   884     0E9E  0837               	movf	lcd_string@num^(0+128),w
   885     0E9F  0238               	subwf	lcd_string@i^(0+128),w
   886     0EA0  1C03               	skipc
   887     0EA1  2EA3               	goto	u1901
   888     0EA2  2EA4               	goto	u1900
   889     0EA3                     u1901:
   890     0EA3  2E85               	goto	l1599
   891     0EA4                     u1900:
   892     0EA4                     l87:
   893     0EA4  0008               	return
   894     0EA5                     __end_of_lcd_string:
   895                           
   896                           	psect	text2
   897     0ECC                     __ptext2:	
   898 ;; *************** function _lcd_data *****************
   899 ;; Defined at:
   900 ;;		line 46 in file "main.c"
   901 ;; Parameters:    Size  Location     Type
   902 ;;  data            1    wreg     unsigned char 
   903 ;; Auto vars:     Size  Location     Type
   904 ;;  data            1    3[BANK1 ] unsigned char 
   905 ;; Return value:  Size  Location     Type
   906 ;;                  1    wreg      void 
   907 ;; Registers used:
   908 ;;		wreg, status,2, status,0, pclath, cstack
   909 ;; Tracked objects:
   910 ;;		On entry : 0/0
   911 ;;		On exit  : 0/0
   912 ;;		Unchanged: 0/0
   913 ;; Data sizes:     COMMON   BANK0   BANK1   BANK3   BANK2
   914 ;;      Params:         0       0       0       0       0
   915 ;;      Locals:         0       0       1       0       0
   916 ;;      Temps:          0       0       1       0       0
   917 ;;      Totals:         0       0       2       0       0
   918 ;;Total ram usage:        2 bytes
   919 ;; Hardware stack levels used: 1
   920 ;; Hardware stack levels required when called: 6
   921 ;; This function calls:
   922 ;;		_lcd_nibble
   923 ;; This function is called by:
   924 ;;		_lcd_string
   925 ;; This function uses a non-reentrant model
   926 ;;
   927                           
   928     0ECC                     _lcd_data:	
   929                           ;psect for function _lcd_data
   930                           
   931                           
   932                           ;incstack = 0
   933                           ; Regs used in _lcd_data: [wreg+status,2+status,0+pclath+cstack]
   934                           ;lcd_data@data stored from wreg
   935     0ECC  1683               	bsf	3,5	;RP0=1, select bank1
   936     0ECD  1303               	bcf	3,6	;RP1=0, select bank1
   937     0ECE  00B4               	movwf	lcd_data@data^(0+128)
   938     0ECF                     l1345:
   939                           
   940                           ;main.c: 47:     _delay((unsigned long)((20)*(20000000/4000.0)));
   941     0ECF  1283               	bcf	3,5	;RP0=0, select bank0
   942     0ED0  1303               	bcf	3,6	;RP1=0, select bank0
   943     0ED1  1409               	bsf	9,0	;volatile
   944     0ED2                     l1347:
   945                           
   946                           ;main.c: 48:     lcd_nibble(0x30);
   947     0ED2  1683               	bsf	3,5	;RP0=1, select bank1
   948     0ED3  1303               	bcf	3,6	;RP1=0, select bank1
   949     0ED4  0834               	movf	lcd_data@data^(0+128),w
   950     0ED5  120A  158A  265E  120A  158A  	fcall	_lcd_nibble
   951                           
   952                           ;main.c: 49:     _delay((unsigned long)((5)*(20000000/4000.0)));
   953     0EDA  1683               	bsf	3,5	;RP0=1, select bank1
   954     0EDB  1303               	bcf	3,6	;RP1=0, select bank1
   955     0EDC  0834               	movf	lcd_data@data^(0+128),w
   956     0EDD  00B3               	movwf	??_lcd_data^(0+128)
   957     0EDE  3003               	movlw	3
   958     0EDF                     u1265:
   959     0EDF  1003               	clrc
   960     0EE0  0DB3               	rlf	??_lcd_data^(0+128),f
   961     0EE1  3EFF               	addlw	-1
   962     0EE2  1D03               	skipz
   963     0EE3  2EDF               	goto	u1265
   964     0EE4  1003               	clrc
   965     0EE5  0D33               	rlf	??_lcd_data^(0+128),w
   966     0EE6  120A  158A  265E  120A  158A  	fcall	_lcd_nibble
   967     0EEB                     l1349:
   968                           
   969                           ;main.c: 50:     lcd_nibble(0x30);
   970     0EEB  30A5               	movlw	165
   971     0EEC  1683               	bsf	3,5	;RP0=1, select bank1
   972     0EED  1303               	bcf	3,6	;RP1=0, select bank1
   973     0EEE  00B3               	movwf	??_lcd_data^(0+128)
   974     0EEF                     u2417:
   975     0EEF  0BB3               	decfsz	??_lcd_data^(0+128),f
   976     0EF0  2EEF               	goto	u2417
   977     0EF1  2EF2               	nop2
   978     0EF2                     l81:
   979     0EF2  0008               	return
   980     0EF3                     __end_of_lcd_data:
   981                           
   982                           	psect	text3
   983     0F9B                     __ptext3:	
   984 ;; *************** function _lcd_initialise *****************
   985 ;; Defined at:
   986 ;;		line 60 in file "main.c"
   987 ;; Parameters:    Size  Location     Type
   988 ;;		None
   989 ;; Auto vars:     Size  Location     Type
   990 ;;		None
   991 ;; Return value:  Size  Location     Type
   992 ;;                  1    wreg      void 
   993 ;; Registers used:
   994 ;;		wreg, status,2, status,0, pclath, cstack
   995 ;; Tracked objects:
   996 ;;		On entry : 0/0
   997 ;;		On exit  : 0/0
   998 ;;		Unchanged: 0/0
   999 ;; Data sizes:     COMMON   BANK0   BANK1   BANK3   BANK2
  1000 ;;      Params:         0       0       0       0       0
  1001 ;;      Locals:         0       0       0       0       0
  1002 ;;      Temps:          0       0       2       0       0
  1003 ;;      Totals:         0       0       2       0       0
  1004 ;;Total ram usage:        2 bytes
  1005 ;; Hardware stack levels used: 1
  1006 ;; Hardware stack levels required when called: 7
  1007 ;; This function calls:
  1008 ;;		_lcd_command
  1009 ;;		_lcd_nibble
  1010 ;; This function is called by:
  1011 ;;		_main
  1012 ;; This function uses a non-reentrant model
  1013 ;;
  1014                           
  1015     0F9B                     _lcd_initialise:	
  1016                           ;psect for function _lcd_initialise
  1017                           
  1018     0F9B                     l1605:	
  1019                           ;incstack = 0
  1020                           ; Regs used in _lcd_initialise: [wreg+status,2+status,0+pclath+cstack]
  1021                           
  1022                           
  1023                           ;main.c: 61:     _delay((unsigned long)((2)*(20000000/4000.0)));
  1024     0F9B  3082               	movlw	130
  1025     0F9C  1683               	bsf	3,5	;RP0=1, select bank1
  1026     0F9D  1303               	bcf	3,6	;RP1=0, select bank1
  1027     0F9E  00B7               	movwf	(??_lcd_initialise^(0+128)+1)
  1028     0F9F  30DD               	movlw	221
  1029     0FA0  00B6               	movwf	??_lcd_initialise^(0+128)
  1030     0FA1                     u2427:
  1031     0FA1  0BB6               	decfsz	??_lcd_initialise^(0+128),f
  1032     0FA2  2FA1               	goto	u2427
  1033     0FA3  0BB7               	decfsz	(??_lcd_initialise^(0+128)+1),f
  1034     0FA4  2FA1               	goto	u2427
  1035     0FA5                     l1607:
  1036                           
  1037                           ;main.c: 62: }
  1038     0FA5  3030               	movlw	48
  1039     0FA6  120A  158A  265E  120A  158A  	fcall	_lcd_nibble
  1040     0FAB                     l1609:
  1041     0FAB  3021               	movlw	33
  1042     0FAC  1683               	bsf	3,5	;RP0=1, select bank1
  1043     0FAD  1303               	bcf	3,6	;RP1=0, select bank1
  1044     0FAE  00B7               	movwf	(??_lcd_initialise^(0+128)+1)
  1045     0FAF  3075               	movlw	117
  1046     0FB0  00B6               	movwf	??_lcd_initialise^(0+128)
  1047     0FB1                     u2437:
  1048     0FB1  0BB6               	decfsz	??_lcd_initialise^(0+128),f
  1049     0FB2  2FB1               	goto	u2437
  1050     0FB3  0BB7               	decfsz	(??_lcd_initialise^(0+128)+1),f
  1051     0FB4  2FB1               	goto	u2437
  1052     0FB5  2FB6               	nop2
  1053     0FB6  3030               	movlw	48
  1054     0FB7  120A  158A  265E  120A  158A  	fcall	_lcd_nibble
  1055     0FBC                     l1611:
  1056     0FBC  30A5               	movlw	165
  1057     0FBD  1683               	bsf	3,5	;RP0=1, select bank1
  1058     0FBE  1303               	bcf	3,6	;RP1=0, select bank1
  1059     0FBF  00B6               	movwf	??_lcd_initialise^(0+128)
  1060     0FC0                     u2447:
  1061     0FC0  0BB6               	decfsz	??_lcd_initialise^(0+128),f
  1062     0FC1  2FC0               	goto	u2447
  1063     0FC2  2FC3               	nop2
  1064     0FC3                     l1613:
  1065     0FC3  3030               	movlw	48
  1066     0FC4  120A  158A  265E  120A  158A  	fcall	_lcd_nibble
  1067     0FC9  30A5               	movlw	165
  1068     0FCA  1683               	bsf	3,5	;RP0=1, select bank1
  1069     0FCB  1303               	bcf	3,6	;RP1=0, select bank1
  1070     0FCC  00B6               	movwf	??_lcd_initialise^(0+128)
  1071     0FCD                     u2457:
  1072     0FCD  0BB6               	decfsz	??_lcd_initialise^(0+128),f
  1073     0FCE  2FCD               	goto	u2457
  1074     0FCF  2FD0               	nop2
  1075     0FD0                     l1615:
  1076     0FD0  3020               	movlw	32
  1077     0FD1  120A  158A  265E  120A  158A  	fcall	_lcd_nibble
  1078     0FD6                     l1617:
  1079     0FD6  30A5               	movlw	165
  1080     0FD7  1683               	bsf	3,5	;RP0=1, select bank1
  1081     0FD8  1303               	bcf	3,6	;RP1=0, select bank1
  1082     0FD9  00B6               	movwf	??_lcd_initialise^(0+128)
  1083     0FDA                     u2467:
  1084     0FDA  0BB6               	decfsz	??_lcd_initialise^(0+128),f
  1085     0FDB  2FDA               	goto	u2467
  1086     0FDC  2FDD               	nop2
  1087     0FDD  3028               	movlw	40
  1088     0FDE  120A  158A  26F3  120A  158A  	fcall	_lcd_command
  1089     0FE3  3006               	movlw	6
  1090     0FE4  120A  158A  26F3  120A  158A  	fcall	_lcd_command
  1091     0FE9  300C               	movlw	12
  1092     0FEA  120A  158A  26F3  120A  158A  	fcall	_lcd_command
  1093     0FEF  3001               	movlw	1
  1094     0FF0  120A  158A  26F3  120A  158A  	fcall	_lcd_command
  1095     0FF5                     l1619:
  1096     0FF5  300D               	movlw	13
  1097     0FF6  1683               	bsf	3,5	;RP0=1, select bank1
  1098     0FF7  1303               	bcf	3,6	;RP1=0, select bank1
  1099     0FF8  00B7               	movwf	(??_lcd_initialise^(0+128)+1)
  1100     0FF9  30FB               	movlw	251
  1101     0FFA  00B6               	movwf	??_lcd_initialise^(0+128)
  1102     0FFB                     u2477:
  1103     0FFB  0BB6               	decfsz	??_lcd_initialise^(0+128),f
  1104     0FFC  2FFB               	goto	u2477
  1105     0FFD  0BB7               	decfsz	(??_lcd_initialise^(0+128)+1),f
  1106     0FFE  2FFB               	goto	u2477
  1107     0FFF                     l90:
  1108     0FFF  0008               	return
  1109     1000                     __end_of_lcd_initialise:
  1110                           
  1111                           	psect	text4
  1112     0EF3                     __ptext4:	
  1113 ;; *************** function _lcd_command *****************
  1114 ;; Defined at:
  1115 ;;		line 39 in file "main.c"
  1116 ;; Parameters:    Size  Location     Type
  1117 ;;  cmd             1    wreg     unsigned char 
  1118 ;; Auto vars:     Size  Location     Type
  1119 ;;  cmd             1    4[BANK1 ] unsigned char 
  1120 ;; Return value:  Size  Location     Type
  1121 ;;                  1    wreg      void 
  1122 ;; Registers used:
  1123 ;;		wreg, status,2, status,0, pclath, cstack
  1124 ;; Tracked objects:
  1125 ;;		On entry : 0/0
  1126 ;;		On exit  : 0/0
  1127 ;;		Unchanged: 0/0
  1128 ;; Data sizes:     COMMON   BANK0   BANK1   BANK3   BANK2
  1129 ;;      Params:         0       0       0       0       0
  1130 ;;      Locals:         0       0       1       0       0
  1131 ;;      Temps:          0       0       2       0       0
  1132 ;;      Totals:         0       0       3       0       0
  1133 ;;Total ram usage:        3 bytes
  1134 ;; Hardware stack levels used: 1
  1135 ;; Hardware stack levels required when called: 6
  1136 ;; This function calls:
  1137 ;;		_lcd_nibble
  1138 ;; This function is called by:
  1139 ;;		_lcd_initialise
  1140 ;;		_main
  1141 ;; This function uses a non-reentrant model
  1142 ;;
  1143                           
  1144     0EF3                     _lcd_command:	
  1145                           ;psect for function _lcd_command
  1146                           
  1147                           
  1148                           ;incstack = 0
  1149                           ; Regs used in _lcd_command: [wreg+status,2+status,0+pclath+cstack]
  1150                           ;lcd_command@cmd stored from wreg
  1151     0EF3  1683               	bsf	3,5	;RP0=1, select bank1
  1152     0EF4  1303               	bcf	3,6	;RP1=0, select bank1
  1153     0EF5  00B5               	movwf	lcd_command@cmd^(0+128)
  1154     0EF6                     l1339:
  1155                           
  1156                           ;main.c: 40:     unsigned char i;
  1157     0EF6  1283               	bcf	3,5	;RP0=0, select bank0
  1158     0EF7  1303               	bcf	3,6	;RP1=0, select bank0
  1159     0EF8  1009               	bcf	9,0	;volatile
  1160     0EF9                     l1341:
  1161                           
  1162                           ;main.c: 41:     for (i = 0; i < num; i++) {
  1163     0EF9  1683               	bsf	3,5	;RP0=1, select bank1
  1164     0EFA  1303               	bcf	3,6	;RP1=0, select bank1
  1165     0EFB  0835               	movf	lcd_command@cmd^(0+128),w
  1166     0EFC  120A  158A  265E  120A  158A  	fcall	_lcd_nibble
  1167                           
  1168                           ;main.c: 42:         lcd_data(str[i]);
  1169     0F01  1683               	bsf	3,5	;RP0=1, select bank1
  1170     0F02  1303               	bcf	3,6	;RP1=0, select bank1
  1171     0F03  0835               	movf	lcd_command@cmd^(0+128),w
  1172     0F04  00B3               	movwf	??_lcd_command^(0+128)
  1173     0F05  3003               	movlw	3
  1174     0F06                     u1255:
  1175     0F06  1003               	clrc
  1176     0F07  0DB3               	rlf	??_lcd_command^(0+128),f
  1177     0F08  3EFF               	addlw	-1
  1178     0F09  1D03               	skipz
  1179     0F0A  2F06               	goto	u1255
  1180     0F0B  1003               	clrc
  1181     0F0C  0D33               	rlf	??_lcd_command^(0+128),w
  1182     0F0D  120A  158A  265E  120A  158A  	fcall	_lcd_nibble
  1183     0F12                     l1343:
  1184                           
  1185                           ;main.c: 43:     }
  1186     0F12  300D               	movlw	13
  1187     0F13  1683               	bsf	3,5	;RP0=1, select bank1
  1188     0F14  1303               	bcf	3,6	;RP1=0, select bank1
  1189     0F15  00B4               	movwf	(??_lcd_command^(0+128)+1)
  1190     0F16  30FB               	movlw	251
  1191     0F17  00B3               	movwf	??_lcd_command^(0+128)
  1192     0F18                     u2487:
  1193     0F18  0BB3               	decfsz	??_lcd_command^(0+128),f
  1194     0F19  2F18               	goto	u2487
  1195     0F1A  0BB4               	decfsz	(??_lcd_command^(0+128)+1),f
  1196     0F1B  2F18               	goto	u2487
  1197     0F1C                     l78:
  1198     0F1C  0008               	return
  1199     0F1D                     __end_of_lcd_command:
  1200                           
  1201                           	psect	text5
  1202     0E5E                     __ptext5:	
  1203 ;; *************** function _lcd_nibble *****************
  1204 ;; Defined at:
  1205 ;;		line 31 in file "main.c"
  1206 ;; Parameters:    Size  Location     Type
  1207 ;;  data            1    wreg     unsigned char 
  1208 ;; Auto vars:     Size  Location     Type
  1209 ;;  data            1    1[BANK1 ] unsigned char 
  1210 ;; Return value:  Size  Location     Type
  1211 ;;                  1    wreg      void 
  1212 ;; Registers used:
  1213 ;;		wreg, status,2, status,0
  1214 ;; Tracked objects:
  1215 ;;		On entry : 0/0
  1216 ;;		On exit  : 0/0
  1217 ;;		Unchanged: 0/0
  1218 ;; Data sizes:     COMMON   BANK0   BANK1   BANK3   BANK2
  1219 ;;      Params:         0       0       0       0       0
  1220 ;;      Locals:         0       0       1       0       0
  1221 ;;      Temps:          0       0       1       0       0
  1222 ;;      Totals:         0       0       2       0       0
  1223 ;;Total ram usage:        2 bytes
  1224 ;; Hardware stack levels used: 1
  1225 ;; Hardware stack levels required when called: 5
  1226 ;; This function calls:
  1227 ;;		Nothing
  1228 ;; This function is called by:
  1229 ;;		_lcd_command
  1230 ;;		_lcd_data
  1231 ;;		_lcd_initialise
  1232 ;; This function uses a non-reentrant model
  1233 ;;
  1234                           
  1235     0E5E                     _lcd_nibble:	
  1236                           ;psect for function _lcd_nibble
  1237                           
  1238                           
  1239                           ;incstack = 0
  1240                           ; Regs used in _lcd_nibble: [wreg+status,2+status,0]
  1241                           ;lcd_nibble@data stored from wreg
  1242     0E5E  1683               	bsf	3,5	;RP0=1, select bank1
  1243     0E5F  1303               	bcf	3,6	;RP1=0, select bank1
  1244     0E60  00B2               	movwf	lcd_nibble@data^(0+128)
  1245     0E61                     l1309:
  1246                           
  1247                           ;main.c: 32: void lcd_data(unsigned char data) {
  1248     0E61  30F0               	movlw	240
  1249     0E62  0532               	andwf	lcd_nibble@data^(0+128),w
  1250     0E63  00B1               	movwf	??_lcd_nibble^(0+128)
  1251     0E64  1283               	bcf	3,5	;RP0=0, select bank0
  1252     0E65  1303               	bcf	3,6	;RP1=0, select bank0
  1253     0E66  0808               	movf	8,w	;volatile
  1254     0E67  390F               	andlw	15
  1255     0E68  1683               	bsf	3,5	;RP0=1, select bank1
  1256     0E69  1303               	bcf	3,6	;RP1=0, select bank1
  1257     0E6A  0431               	iorwf	??_lcd_nibble^(0+128),w
  1258     0E6B  1283               	bcf	3,5	;RP0=0, select bank0
  1259     0E6C  1303               	bcf	3,6	;RP1=0, select bank0
  1260     0E6D  0088               	movwf	8	;volatile
  1261     0E6E                     l1311:
  1262                           
  1263                           ;main.c: 33:     PORTEbits.RE0 = 1;
  1264     0E6E  1489               	bsf	9,1	;volatile
  1265     0E6F                     l1313:
  1266                           
  1267                           ;main.c: 34:     lcd_nibble(data);
  1268     0E6F  300F               	movlw	15
  1269     0E70  1683               	bsf	3,5	;RP0=1, select bank1
  1270     0E71  1303               	bcf	3,6	;RP1=0, select bank1
  1271     0E72  00B1               	movwf	??_lcd_nibble^(0+128)
  1272     0E73                     u2497:
  1273     0E73  0BB1               	decfsz	??_lcd_nibble^(0+128),f
  1274     0E74  2E73               	goto	u2497
  1275     0E75  2E76               	nop2
  1276     0E76                     l1315:
  1277                           
  1278                           ;main.c: 35:     lcd_nibble(data << 4);
  1279     0E76  1283               	bcf	3,5	;RP0=0, select bank0
  1280     0E77  1303               	bcf	3,6	;RP1=0, select bank0
  1281     0E78  1089               	bcf	9,1	;volatile
  1282     0E79                     l1317:
  1283                           
  1284                           ;main.c: 36:     _delay((unsigned long)((100)*(20000000/4000000.0)));
  1285     0E79  300F               	movlw	15
  1286     0E7A  1683               	bsf	3,5	;RP0=1, select bank1
  1287     0E7B  1303               	bcf	3,6	;RP1=0, select bank1
  1288     0E7C  00B1               	movwf	??_lcd_nibble^(0+128)
  1289     0E7D                     u2507:
  1290     0E7D  0BB1               	decfsz	??_lcd_nibble^(0+128),f
  1291     0E7E  2E7D               	goto	u2507
  1292     0E7F  2E80               	nop2
  1293     0E80                     l75:
  1294     0E80  0008               	return
  1295     0E81                     __end_of_lcd_nibble:
  1296                           
  1297                           	psect	text6
  1298     0D86                     __ptext6:	
  1299 ;; *************** function _adc_config *****************
  1300 ;; Defined at:
  1301 ;;		line 113 in file "main.c"
  1302 ;; Parameters:    Size  Location     Type
  1303 ;;		None
  1304 ;; Auto vars:     Size  Location     Type
  1305 ;;		None
  1306 ;; Return value:  Size  Location     Type
  1307 ;;                  1    wreg      void 
  1308 ;; Registers used:
  1309 ;;		wreg
  1310 ;; Tracked objects:
  1311 ;;		On entry : 0/0
  1312 ;;		On exit  : 0/0
  1313 ;;		Unchanged: 0/0
  1314 ;; Data sizes:     COMMON   BANK0   BANK1   BANK3   BANK2
  1315 ;;      Params:         0       0       0       0       0
  1316 ;;      Locals:         0       0       0       0       0
  1317 ;;      Temps:          0       0       0       0       0
  1318 ;;      Totals:         0       0       0       0       0
  1319 ;;Total ram usage:        0 bytes
  1320 ;; Hardware stack levels used: 1
  1321 ;; Hardware stack levels required when called: 5
  1322 ;; This function calls:
  1323 ;;		Nothing
  1324 ;; This function is called by:
  1325 ;;		_main
  1326 ;; This function uses a non-reentrant model
  1327 ;;
  1328                           
  1329     0D86                     _adc_config:	
  1330                           ;psect for function _adc_config
  1331                           
  1332     0D86                     l1621:	
  1333                           ;incstack = 0
  1334                           ; Regs used in _adc_config: [wreg]
  1335                           
  1336                           
  1337                           ;main.c: 115:     ADCON0 = 0b10011001;
  1338     0D86  3099               	movlw	153
  1339     0D87  1283               	bcf	3,5	;RP0=0, select bank0
  1340     0D88  1303               	bcf	3,6	;RP1=0, select bank0
  1341     0D89  009F               	movwf	31	;volatile
  1342                           
  1343                           ;main.c: 116:     ADCON1 = 0b10000010;
  1344     0D8A  3082               	movlw	130
  1345     0D8B  1683               	bsf	3,5	;RP0=1, select bank1
  1346     0D8C  1303               	bcf	3,6	;RP1=0, select bank1
  1347     0D8D  009F               	movwf	31	;volatile
  1348     0D8E                     l93:
  1349     0D8E  0008               	return
  1350     0D8F                     __end_of_adc_config:
  1351                           
  1352                           	psect	text7
  1353     0D99                     __ptext7:	
  1354 ;; *************** function _UART_Init *****************
  1355 ;; Defined at:
  1356 ;;		line 210 in file "main.c"
  1357 ;; Parameters:    Size  Location     Type
  1358 ;;		None
  1359 ;; Auto vars:     Size  Location     Type
  1360 ;;		None
  1361 ;; Return value:  Size  Location     Type
  1362 ;;                  1    wreg      void 
  1363 ;; Registers used:
  1364 ;;		wreg
  1365 ;; Tracked objects:
  1366 ;;		On entry : 0/0
  1367 ;;		On exit  : 0/0
  1368 ;;		Unchanged: 0/0
  1369 ;; Data sizes:     COMMON   BANK0   BANK1   BANK3   BANK2
  1370 ;;      Params:         0       0       0       0       0
  1371 ;;      Locals:         0       0       0       0       0
  1372 ;;      Temps:          0       0       0       0       0
  1373 ;;      Totals:         0       0       0       0       0
  1374 ;;Total ram usage:        0 bytes
  1375 ;; Hardware stack levels used: 1
  1376 ;; Hardware stack levels required when called: 5
  1377 ;; This function calls:
  1378 ;;		Nothing
  1379 ;; This function is called by:
  1380 ;;		_main
  1381 ;; This function uses a non-reentrant model
  1382 ;;
  1383                           
  1384     0D99                     _UART_Init:	
  1385                           ;psect for function _UART_Init
  1386                           
  1387     0D99                     l1657:	
  1388                           ;incstack = 0
  1389                           ; Regs used in _UART_Init: [wreg]
  1390                           
  1391                           
  1392                           ;main.c: 212:     TRISC6 = 1;
  1393     0D99  1683               	bsf	3,5	;RP0=1, select bank1
  1394     0D9A  1303               	bcf	3,6	;RP1=0, select bank1
  1395     0D9B  1707               	bsf	7,6	;volatile
  1396                           
  1397                           ;main.c: 213:     TRISC7 = 1;
  1398     0D9C  1787               	bsf	7,7	;volatile
  1399     0D9D                     l1659:
  1400                           
  1401                           ;main.c: 215:     SPBRG = 31;
  1402     0D9D  301F               	movlw	31
  1403     0D9E  0099               	movwf	25	;volatile
  1404     0D9F                     l1661:
  1405                           
  1406                           ;main.c: 216:     TXSTAbits.SYNC = 0;
  1407     0D9F  1218               	bcf	24,4	;volatile
  1408     0DA0                     l1663:
  1409                           
  1410                           ;main.c: 217:     TXSTAbits.BRGH = 1;
  1411     0DA0  1518               	bsf	24,2	;volatile
  1412     0DA1                     l1665:
  1413                           
  1414                           ;main.c: 218:     RCSTAbits.SPEN = 1;
  1415     0DA1  1283               	bcf	3,5	;RP0=0, select bank0
  1416     0DA2  1303               	bcf	3,6	;RP1=0, select bank0
  1417     0DA3  1798               	bsf	24,7	;volatile
  1418     0DA4                     l1667:
  1419                           
  1420                           ;main.c: 219:     TXSTAbits.TXEN = 1;
  1421     0DA4  1683               	bsf	3,5	;RP0=1, select bank1
  1422     0DA5  1303               	bcf	3,6	;RP1=0, select bank1
  1423     0DA6  1698               	bsf	24,5	;volatile
  1424     0DA7                     l1669:
  1425                           
  1426                           ;main.c: 220:     RCSTAbits.CREN = 1;
  1427     0DA7  1283               	bcf	3,5	;RP0=0, select bank0
  1428     0DA8  1303               	bcf	3,6	;RP1=0, select bank0
  1429     0DA9  1618               	bsf	24,4	;volatile
  1430     0DAA                     l1671:
  1431                           
  1432                           ;main.c: 221:     PIE1bits.RCIE = 1;
  1433     0DAA  1683               	bsf	3,5	;RP0=1, select bank1
  1434     0DAB  1303               	bcf	3,6	;RP1=0, select bank1
  1435     0DAC  168C               	bsf	12,5	;volatile
  1436     0DAD                     l121:
  1437     0DAD  0008               	return
  1438     0DAE                     __end_of_UART_Init:
  1439                           
  1440                           	psect	text8
  1441     06AA                     __ptext8:	
  1442 ;; *************** function _isr *****************
  1443 ;; Defined at:
  1444 ;;		line 147 in file "main.c"
  1445 ;; Parameters:    Size  Location     Type
  1446 ;;		None
  1447 ;; Auto vars:     Size  Location     Type
  1448 ;;		None
  1449 ;; Return value:  Size  Location     Type
  1450 ;;                  1    wreg      void 
  1451 ;; Registers used:
  1452 ;;		wreg, fsr0l, fsr0h, status,2, status,0, btemp+1, pclath, cstack
  1453 ;; Tracked objects:
  1454 ;;		On entry : 0/0
  1455 ;;		On exit  : 0/0
  1456 ;;		Unchanged: 0/0
  1457 ;; Data sizes:     COMMON   BANK0   BANK1   BANK3   BANK2
  1458 ;;      Params:         0       0       0       0       0
  1459 ;;      Locals:         0       0       0       0       0
  1460 ;;      Temps:          0       4       0       0       0
  1461 ;;      Totals:         0       4       0       0       0
  1462 ;;Total ram usage:        4 bytes
  1463 ;; Hardware stack levels used: 1
  1464 ;; Hardware stack levels required when called: 4
  1465 ;; This function calls:
  1466 ;;		_UART_SendString
  1467 ;;		___fldiv
  1468 ;;		___flmul
  1469 ;;		___xxtofl
  1470 ;;		_adc_read
  1471 ;;		_lcd_print
  1472 ;; This function is called by:
  1473 ;;		Interrupt level 1
  1474 ;; This function uses a non-reentrant model
  1475 ;;
  1476                           
  1477     06AA                     _isr:	
  1478                           ;psect for function _isr
  1479                           
  1480     06AA                     i1l1867:
  1481                           
  1482                           ;main.c: 149:     if(PIR1bits.TMR2IF == 1)
  1483     06AA  1C8C               	btfss	12,1	;volatile
  1484     06AB  2EAD               	goto	u236_21
  1485     06AC  2EAE               	goto	u236_20
  1486     06AD                     u236_21:
  1487     06AD  2ECF               	goto	i1l1879
  1488     06AE                     u236_20:
  1489     06AE                     i1l1869:
  1490                           
  1491                           ;main.c: 150:     {;main.c: 151:         count++;
  1492     06AE  3001               	movlw	1
  1493     06AF  07DE               	addwf	_count,f
  1494     06B0  1803               	skipnc
  1495     06B1  0ADF               	incf	_count+1,f
  1496     06B2  3000               	movlw	0
  1497     06B3  07DF               	addwf	_count+1,f
  1498     06B4                     i1l1871:
  1499                           
  1500                           ;main.c: 152:         PIR1bits.TMR2IF = 0;
  1501     06B4  108C               	bcf	12,1	;volatile
  1502     06B5                     i1l1873:
  1503                           
  1504                           ;main.c: 153:         if(count == 76*3)
  1505     06B5  30E4               	movlw	228
  1506     06B6  065E               	xorwf	_count,w
  1507     06B7  045F               	iorwf	_count+1,w
  1508     06B8  1D03               	btfss	3,2
  1509     06B9  2EBB               	goto	u237_21
  1510     06BA  2EBC               	goto	u237_20
  1511     06BB                     u237_21:
  1512     06BB  2ECF               	goto	i1l1879
  1513     06BC                     u237_20:
  1514     06BC                     i1l1875:
  1515                           
  1516                           ;main.c: 154:         {;main.c: 155:             PORTBbits.RB1 = ~PORTBbits.RB1;
  1517     06BC  1003               	clrc
  1518     06BD  1C86               	btfss	6,1	;volatile
  1519     06BE  1403               	setc
  1520     06BF  1803               	btfsc	3,0
  1521     06C0  2EC2               	goto	u238_21
  1522     06C1  2EC6               	goto	u238_20
  1523     06C2                     u238_21:
  1524     06C2  1283               	bcf	3,5	;RP0=0, select bank0
  1525     06C3  1303               	bcf	3,6	;RP1=0, select bank0
  1526     06C4  1486               	bsf	6,1	;volatile
  1527     06C5  2EC9               	goto	u239_24
  1528     06C6                     u238_20:
  1529     06C6  1283               	bcf	3,5	;RP0=0, select bank0
  1530     06C7  1303               	bcf	3,6	;RP1=0, select bank0
  1531     06C8  1086               	bcf	6,1	;volatile
  1532     06C9                     u239_24:
  1533     06C9                     i1l1877:
  1534                           
  1535                           ;main.c: 156:             UART_SendString("ok!");
  1536     06C9  300A               	movlw	(low ((STR_3-__stringbase)| (0+32768)))& (0+255)
  1537     06CA  120A  158A  25DD  120A  118A  	fcall	_UART_SendString
  1538     06CF                     i1l1879:
  1539                           
  1540                           ;main.c: 161:     if(INTCONbits.INTF == 1)
  1541     06CF  1C8B               	btfss	11,1	;volatile
  1542     06D0  2ED2               	goto	u240_21
  1543     06D1  2ED3               	goto	u240_20
  1544     06D2                     u240_21:
  1545     06D2  2F3B               	goto	i1l110
  1546     06D3                     u240_20:
  1547     06D3                     i1l1881:
  1548                           
  1549                           ;main.c: 162:     {;main.c: 163:         read = adc_read();
  1550     06D3  120A  158A  25AE  120A  118A  	fcall	_adc_read
  1551     06D8  0871               	movf	?_adc_read+1,w
  1552     06D9  1283               	bcf	3,5	;RP0=0, select bank0
  1553     06DA  1303               	bcf	3,6	;RP1=0, select bank0
  1554     06DB  00E1               	movwf	_read+1
  1555     06DC  0870               	movf	?_adc_read,w
  1556     06DD  00E0               	movwf	_read
  1557                           
  1558                           ;main.c: 164:         result = (read * 5.0) / 1023.0;
  1559     06DE  3044               	movlw	68
  1560     06DF  00BD               	movwf	___fldiv@a+3
  1561     06E0  307F               	movlw	127
  1562     06E1  00BC               	movwf	___fldiv@a+2
  1563     06E2  30C0               	movlw	192
  1564     06E3  00BB               	movwf	___fldiv@a+1
  1565     06E4  3000               	movlw	0
  1566     06E5  00BA               	movwf	___fldiv@a
  1567     06E6  3040               	movlw	64
  1568     06E7  00A3               	movwf	___flmul@b+3
  1569     06E8  30A0               	movlw	160
  1570     06E9  00A2               	movwf	___flmul@b+2
  1571     06EA  3000               	movlw	0
  1572     06EB  00A1               	movwf	___flmul@b+1
  1573     06EC  3000               	movlw	0
  1574     06ED  00A0               	movwf	___flmul@b
  1575     06EE  0860               	movf	_read,w
  1576     06EF  00F0               	movwf	___xxtofl@val
  1577     06F0  0861               	movf	_read+1,w
  1578     06F1  00F1               	movwf	___xxtofl@val+1
  1579     06F2  3000               	movlw	0
  1580     06F3  1BF1               	btfsc	___xxtofl@val+1,7
  1581     06F4  30FF               	movlw	255
  1582     06F5  00F2               	movwf	___xxtofl@val+2
  1583     06F6  00F3               	movwf	___xxtofl@val+3
  1584     06F7  3001               	movlw	1
  1585     06F8  120A  118A  253E  120A  118A  	fcall	___xxtofl
  1586     06FD  0873               	movf	?___xxtofl+3,w
  1587     06FE  1283               	bcf	3,5	;RP0=0, select bank0
  1588     06FF  1303               	bcf	3,6	;RP1=0, select bank0
  1589     0700  00A7               	movwf	___flmul@a+3
  1590     0701  0872               	movf	?___xxtofl+2,w
  1591     0702  00A6               	movwf	___flmul@a+2
  1592     0703  0871               	movf	?___xxtofl+1,w
  1593     0704  00A5               	movwf	___flmul@a+1
  1594     0705  0870               	movf	?___xxtofl,w
  1595     0706  00A4               	movwf	___flmul@a
  1596     0707  120A  118A  202A  120A  118A  	fcall	___flmul
  1597     070C  1283               	bcf	3,5	;RP0=0, select bank0
  1598     070D  1303               	bcf	3,6	;RP1=0, select bank0
  1599     070E  0823               	movf	?___flmul+3,w
  1600     070F  00C1               	movwf	___fldiv@b+3
  1601     0710  0822               	movf	?___flmul+2,w
  1602     0711  00C0               	movwf	___fldiv@b+2
  1603     0712  0821               	movf	?___flmul+1,w
  1604     0713  00BF               	movwf	___fldiv@b+1
  1605     0714  0820               	movf	?___flmul,w
  1606     0715  00BE               	movwf	___fldiv@b
  1607     0716  120A  118A  236F  120A  118A  	fcall	___fldiv
  1608     071B  1283               	bcf	3,5	;RP0=0, select bank0
  1609     071C  1303               	bcf	3,6	;RP1=0, select bank0
  1610     071D  083D               	movf	?___fldiv+3,w
  1611     071E  00DB               	movwf	_result+3
  1612     071F  083C               	movf	?___fldiv+2,w
  1613     0720  00DA               	movwf	_result+2
  1614     0721  083B               	movf	?___fldiv+1,w
  1615     0722  00D9               	movwf	_result+1
  1616     0723  083A               	movf	?___fldiv,w
  1617     0724  00D8               	movwf	_result
  1618     0725                     i1l1883:
  1619                           
  1620                           ;main.c: 165:         lcd_print(result);
  1621     0725  085B               	movf	_result+3,w
  1622     0726  00C7               	movwf	lcd_print@read+3
  1623     0727  085A               	movf	_result+2,w
  1624     0728  00C6               	movwf	lcd_print@read+2
  1625     0729  0859               	movf	_result+1,w
  1626     072A  00C5               	movwf	lcd_print@read+1
  1627     072B  0858               	movf	_result,w
  1628     072C  00C4               	movwf	lcd_print@read
  1629     072D  120A  118A  25F6  120A  118A  	fcall	_lcd_print
  1630     0732                     i1l1885:
  1631                           
  1632                           ;main.c: 167:         count = 0;
  1633     0732  1283               	bcf	3,5	;RP0=0, select bank0
  1634     0733  1303               	bcf	3,6	;RP1=0, select bank0
  1635     0734  01DE               	clrf	_count
  1636     0735  01DF               	clrf	_count+1
  1637     0736                     i1l1887:
  1638                           
  1639                           ;main.c: 168:         PORTBbits.RB1 = 1;
  1640     0736  1486               	bsf	6,1	;volatile
  1641     0737                     i1l1889:
  1642                           
  1643                           ;main.c: 169:         PIE1bits.TMR2IE = 1;
  1644     0737  1683               	bsf	3,5	;RP0=1, select bank1
  1645     0738  1303               	bcf	3,6	;RP1=0, select bank1
  1646     0739  148C               	bsf	12,1	;volatile
  1647     073A                     i1l1891:
  1648                           
  1649                           ;main.c: 170:         INTCONbits.INTF = 0;
  1650     073A  108B               	bcf	11,1	;volatile
  1651     073B                     i1l110:
  1652     073B  1283               	bcf	3,5	;RP0=0, select bank0
  1653     073C  1303               	bcf	3,6	;RP1=0, select bank0
  1654     073D  0857               	movf	??_isr+3,w
  1655     073E  00FF               	movwf	btemp+1
  1656     073F  0856               	movf	??_isr+2,w
  1657     0740  008A               	movwf	10
  1658     0741  0855               	movf	??_isr+1,w
  1659     0742  0084               	movwf	4
  1660     0743  0E54               	swapf	??_isr,w
  1661     0744  0083               	movwf	3
  1662     0745  0EFE               	swapf	btemp,f
  1663     0746  0E7E               	swapf	btemp,w
  1664     0747  0009               	retfie
  1665     0748                     __end_of_isr:
  1666                           
  1667                           	psect	intentry
  1668     0004                     __pintentry:	
  1669                           ;incstack = 0
  1670                           ; Regs used in _isr: [wreg-fsr0h+status,2+status,0+btemp+1+pclath+cstack]
  1671                           
  1672     0004                     interrupt_function:
  1673     007E                     saved_w	set	btemp
  1674     0004  00FE               	movwf	btemp
  1675     0005  0E03               	swapf	3,w
  1676     0006  1283               	bcf	3,5	;RP0=0, select bank0
  1677     0007  1303               	bcf	3,6	;RP1=0, select bank0
  1678     0008  00D4               	movwf	??_isr
  1679     0009  0804               	movf	4,w
  1680     000A  00D5               	movwf	??_isr+1
  1681     000B  080A               	movf	10,w
  1682     000C  00D6               	movwf	??_isr+2
  1683     000D  087F               	movf	btemp+1,w
  1684     000E  00D7               	movwf	??_isr+3
  1685     000F  120A  118A  2EAA   	ljmp	_isr
  1686                           
  1687                           	psect	text9
  1688     05F6                     __ptext9:	
  1689 ;; *************** function _lcd_print *****************
  1690 ;; Defined at:
  1691 ;;		line 128 in file "main.c"
  1692 ;; Parameters:    Size  Location     Type
  1693 ;;  read            4   36[BANK0 ] float 
  1694 ;; Auto vars:     Size  Location     Type
  1695 ;;  buffer          4   40[BANK0 ] unsigned char [4]
  1696 ;;  int_read        2   44[BANK0 ] unsigned int 
  1697 ;; Return value:  Size  Location     Type
  1698 ;;                  1    wreg      void 
  1699 ;; Registers used:
  1700 ;;		wreg, fsr0l, fsr0h, status,2, status,0, btemp+1, pclath, cstack
  1701 ;; Tracked objects:
  1702 ;;		On entry : 0/0
  1703 ;;		On exit  : 0/0
  1704 ;;		Unchanged: 0/0
  1705 ;; Data sizes:     COMMON   BANK0   BANK1   BANK3   BANK2
  1706 ;;      Params:         0       4       0       0       0
  1707 ;;      Locals:         0       6       0       0       0
  1708 ;;      Temps:          0       0       0       0       0
  1709 ;;      Totals:         0      10       0       0       0
  1710 ;;Total ram usage:       10 bytes
  1711 ;; Hardware stack levels used: 1
  1712 ;; Hardware stack levels required when called: 3
  1713 ;; This function calls:
  1714 ;;		___flmul
  1715 ;;		___fltol
  1716 ;;		___lwdiv
  1717 ;;		___lwmod
  1718 ;;		i1_lcd_command
  1719 ;;		i1_lcd_string
  1720 ;; This function is called by:
  1721 ;;		_isr
  1722 ;; This function uses a non-reentrant model
  1723 ;;
  1724                           
  1725     05F6                     _lcd_print:	
  1726                           ;psect for function _lcd_print
  1727                           
  1728     05F6                     i1l1631:	
  1729                           ;incstack = 0
  1730                           ; Regs used in _lcd_print: [wreg-fsr0h+status,2+status,0+btemp+1+pclath+cstack]
  1731                           
  1732                           
  1733                           ;main.c: 128: void lcd_print(float read);main.c: 129: {;main.c: 130:     unsigned char b
      +                          uffer[4];;main.c: 131:     unsigned int int_read = (unsigned int)(read * 100);
  1734     05F6  1283               	bcf	3,5	;RP0=0, select bank0
  1735     05F7  1303               	bcf	3,6	;RP1=0, select bank0
  1736     05F8  0847               	movf	lcd_print@read+3,w
  1737     05F9  00A7               	movwf	___flmul@a+3
  1738     05FA  0846               	movf	lcd_print@read+2,w
  1739     05FB  00A6               	movwf	___flmul@a+2
  1740     05FC  0845               	movf	lcd_print@read+1,w
  1741     05FD  00A5               	movwf	___flmul@a+1
  1742     05FE  0844               	movf	lcd_print@read,w
  1743     05FF  00A4               	movwf	___flmul@a
  1744     0600  3042               	movlw	66
  1745     0601  00A3               	movwf	___flmul@b+3
  1746     0602  30C8               	movlw	200
  1747     0603  00A2               	movwf	___flmul@b+2
  1748     0604  3000               	movlw	0
  1749     0605  00A1               	movwf	___flmul@b+1
  1750     0606  3000               	movlw	0
  1751     0607  00A0               	movwf	___flmul@b
  1752     0608  120A  118A  202A  120A  118A  	fcall	___flmul
  1753     060D  1283               	bcf	3,5	;RP0=0, select bank0
  1754     060E  1303               	bcf	3,6	;RP1=0, select bank0
  1755     060F  0823               	movf	?___flmul+3,w
  1756     0610  00BD               	movwf	___fltol@f1+3
  1757     0611  0822               	movf	?___flmul+2,w
  1758     0612  00BC               	movwf	___fltol@f1+2
  1759     0613  0821               	movf	?___flmul+1,w
  1760     0614  00BB               	movwf	___fltol@f1+1
  1761     0615  0820               	movf	?___flmul,w
  1762     0616  00BA               	movwf	___fltol@f1
  1763     0617  120A  118A  2748  120A  118A  	fcall	___fltol
  1764     061C  1283               	bcf	3,5	;RP0=0, select bank0
  1765     061D  1303               	bcf	3,6	;RP1=0, select bank0
  1766     061E  083B               	movf	?___fltol+1,w
  1767     061F  00CD               	movwf	lcd_print@int_read+1
  1768     0620  083A               	movf	?___fltol,w
  1769     0621  00CC               	movwf	lcd_print@int_read
  1770                           
  1771                           ;main.c: 133:     buffer[0] = (unsigned char)(int_read / 100) + '0';
  1772     0622  3064               	movlw	100
  1773     0623  00F5               	movwf	___lwdiv@divisor
  1774     0624  3000               	movlw	0
  1775     0625  00F6               	movwf	___lwdiv@divisor+1
  1776     0626  084D               	movf	lcd_print@int_read+1,w
  1777     0627  00F8               	movwf	___lwdiv@dividend+1
  1778     0628  084C               	movf	lcd_print@int_read,w
  1779     0629  00F7               	movwf	___lwdiv@dividend
  1780     062A  120A  158A  2757  120A  118A  	fcall	___lwdiv
  1781     062F  0875               	movf	?___lwdiv,w
  1782     0630  3E30               	addlw	48
  1783     0631  1283               	bcf	3,5	;RP0=0, select bank0
  1784     0632  1303               	bcf	3,6	;RP1=0, select bank0
  1785     0633  00C8               	movwf	lcd_print@buffer
  1786                           
  1787                           ;main.c: 134:     buffer[1] = (unsigned char)((int_read % 100) / 10) + '0';
  1788     0634  300A               	movlw	10
  1789     0635  00F5               	movwf	___lwdiv@divisor
  1790     0636  3000               	movlw	0
  1791     0637  00F6               	movwf	___lwdiv@divisor+1
  1792     0638  084D               	movf	lcd_print@int_read+1,w
  1793     0639  00F3               	movwf	___lwmod@dividend+1
  1794     063A  084C               	movf	lcd_print@int_read,w
  1795     063B  00F2               	movwf	___lwmod@dividend
  1796     063C  3064               	movlw	100
  1797     063D  00F0               	movwf	___lwmod@divisor
  1798     063E  3000               	movlw	0
  1799     063F  00F1               	movwf	___lwmod@divisor+1
  1800     0640  120A  158A  271D  120A  118A  	fcall	___lwmod
  1801     0645  0871               	movf	?___lwmod+1,w
  1802     0646  00F8               	movwf	___lwdiv@dividend+1
  1803     0647  0870               	movf	?___lwmod,w
  1804     0648  00F7               	movwf	___lwdiv@dividend
  1805     0649  120A  158A  2757  120A  118A  	fcall	___lwdiv
  1806     064E  0875               	movf	?___lwdiv,w
  1807     064F  3E30               	addlw	48
  1808     0650  1283               	bcf	3,5	;RP0=0, select bank0
  1809     0651  1303               	bcf	3,6	;RP1=0, select bank0
  1810     0652  00C9               	movwf	lcd_print@buffer+1
  1811                           
  1812                           ;main.c: 135:     buffer[2] = (unsigned char)(int_read % 10) + '0';
  1813     0653  300A               	movlw	10
  1814     0654  00F0               	movwf	___lwmod@divisor
  1815     0655  3000               	movlw	0
  1816     0656  00F1               	movwf	___lwmod@divisor+1
  1817     0657  084D               	movf	lcd_print@int_read+1,w
  1818     0658  00F3               	movwf	___lwmod@dividend+1
  1819     0659  084C               	movf	lcd_print@int_read,w
  1820     065A  00F2               	movwf	___lwmod@dividend
  1821     065B  120A  158A  271D  120A  118A  	fcall	___lwmod
  1822     0660  0870               	movf	?___lwmod,w
  1823     0661  3E30               	addlw	48
  1824     0662  1283               	bcf	3,5	;RP0=0, select bank0
  1825     0663  1303               	bcf	3,6	;RP1=0, select bank0
  1826     0664  00CA               	movwf	lcd_print@buffer+2
  1827     0665                     i1l1633:
  1828                           
  1829                           ;main.c: 137:     lcd_command(0x88);
  1830     0665  3088               	movlw	136
  1831     0666  120A  158A  263B  120A  118A  	fcall	i1_lcd_command
  1832     066B                     i1l1635:
  1833                           
  1834                           ;main.c: 138:     lcd_string(buffer, 1);
  1835     066B  3048               	movlw	(low (lcd_print@buffer| 0))& (0+255)
  1836     066C  00F4               	movwf	i1lcd_string@str
  1837     066D  3000               	movlw	0
  1838     066E  00F5               	movwf	i1lcd_string@str+1
  1839     066F  01F6               	clrf	i1lcd_string@num
  1840     0670  0AF6               	incf	i1lcd_string@num,f
  1841     0671  120A  158A  261B  120A  118A  	fcall	i1_lcd_string
  1842     0676                     i1l1637:
  1843                           
  1844                           ;main.c: 139:     lcd_command(0x06);
  1845     0676  3006               	movlw	6
  1846     0677  120A  158A  263B  120A  118A  	fcall	i1_lcd_command
  1847     067C                     i1l1639:
  1848                           
  1849                           ;main.c: 140:     lcd_string(",", 1);
  1850     067C  3011               	movlw	(low ((STR_1-__stringbase)| (0+32768)))& (0+255)
  1851     067D  00F4               	movwf	i1lcd_string@str
  1852     067E  3080               	movlw	128
  1853     067F  00F5               	movwf	i1lcd_string@str+1
  1854     0680  01F6               	clrf	i1lcd_string@num
  1855     0681  0AF6               	incf	i1lcd_string@num,f
  1856     0682  120A  158A  261B  120A  118A  	fcall	i1_lcd_string
  1857     0687                     i1l1641:
  1858                           
  1859                           ;main.c: 141:     lcd_command(0x06);
  1860     0687  3006               	movlw	6
  1861     0688  120A  158A  263B  120A  118A  	fcall	i1_lcd_command
  1862     068D                     i1l1643:
  1863                           
  1864                           ;main.c: 142:     lcd_string(&buffer[1], 2);
  1865     068D  3049               	movlw	(low ((lcd_print@buffer| 0+1)))& (0+255)
  1866     068E  00F4               	movwf	i1lcd_string@str
  1867     068F  3000               	movlw	0
  1868     0690  00F5               	movwf	i1lcd_string@str+1
  1869     0691  3002               	movlw	2
  1870     0692  00F6               	movwf	i1lcd_string@num
  1871     0693  120A  158A  261B  120A  118A  	fcall	i1_lcd_string
  1872     0698                     i1l1645:
  1873                           
  1874                           ;main.c: 143:     lcd_command(0x06);
  1875     0698  3006               	movlw	6
  1876     0699  120A  158A  263B  120A  118A  	fcall	i1_lcd_command
  1877     069E                     i1l1647:
  1878                           
  1879                           ;main.c: 144:     lcd_string(" V", 2);
  1880     069E  300E               	movlw	(low ((STR_2-__stringbase)| (0+32768)))& (0+255)
  1881     069F  00F4               	movwf	i1lcd_string@str
  1882     06A0  3080               	movlw	128
  1883     06A1  00F5               	movwf	i1lcd_string@str+1
  1884     06A2  3002               	movlw	2
  1885     06A3  00F6               	movwf	i1lcd_string@num
  1886     06A4  120A  158A  261B  120A  118A  	fcall	i1_lcd_string
  1887     06A9                     i1l102:
  1888     06A9  0008               	return
  1889     06AA                     __end_of_lcd_print:
  1890                           
  1891                           	psect	text10
  1892     0E1B                     __ptext10:	
  1893 ;; *************** function i1_lcd_string *****************
  1894 ;; Defined at:
  1895 ;;		line 53 in file "main.c"
  1896 ;; Parameters:    Size  Location     Type
  1897 ;;  str             2    4[COMMON] PTR const unsigned char 
  1898 ;;		 -> STR_4(9), STR_2(3), STR_1(2), lcd_print@buffer(4), 
  1899 ;;  num             1    6[COMMON] unsigned char 
  1900 ;; Auto vars:     Size  Location     Type
  1901 ;;  i               1    7[COMMON] unsigned char 
  1902 ;; Return value:  Size  Location     Type
  1903 ;;                  1    wreg      void 
  1904 ;; Registers used:
  1905 ;;		wreg, fsr0l, fsr0h, status,2, status,0, btemp+1, pclath, cstack
  1906 ;; Tracked objects:
  1907 ;;		On entry : 0/0
  1908 ;;		On exit  : 0/0
  1909 ;;		Unchanged: 0/0
  1910 ;; Data sizes:     COMMON   BANK0   BANK1   BANK3   BANK2
  1911 ;;      Params:         3       0       0       0       0
  1912 ;;      Locals:         1       0       0       0       0
  1913 ;;      Temps:          0       0       0       0       0
  1914 ;;      Totals:         4       0       0       0       0
  1915 ;;Total ram usage:        4 bytes
  1916 ;; Hardware stack levels used: 1
  1917 ;; Hardware stack levels required when called: 2
  1918 ;; This function calls:
  1919 ;;		i1_lcd_data
  1920 ;; This function is called by:
  1921 ;;		_lcd_print
  1922 ;; This function uses a non-reentrant model
  1923 ;;
  1924                           
  1925     0E1B                     i1_lcd_string:	
  1926                           ;psect for function i1_lcd_string
  1927                           
  1928     0E1B                     i1l1589:	
  1929                           ;incstack = 0
  1930 ;; using string table level
  1931                           ; Regs used in i1_lcd_string: [wreg-fsr0h+status,2+status,0+btemp+1+pclath+cstack]
  1932                           
  1933                           
  1934                           ;main.c: 54:     lcd_nibble(0x20);;main.c: 55:     _delay((unsigned long)((100)*(2000000
      +                          0/4000000.0)));
  1935     0E1B  01F7               	clrf	i1lcd_string@i
  1936     0E1C  2E34               	goto	i1l1595
  1937     0E1D                     i1l1591:
  1938                           
  1939                           ;main.c: 56: 
  1940     0E1D  0877               	movf	i1lcd_string@i,w
  1941     0E1E  0774               	addwf	i1lcd_string@str,w
  1942     0E1F  0084               	movwf	4
  1943     0E20  0875               	movf	i1lcd_string@str+1,w
  1944     0E21  1803               	skipnc
  1945     0E22  0A75               	incf	i1lcd_string@str+1,w
  1946     0E23  1283               	bcf	3,5	;RP0=0, select bank0
  1947     0E24  1303               	bcf	3,6	;RP1=0, select bank0
  1948     0E25  00FF               	movwf	btemp+1
  1949     0E26  120A  158A  2000  120A  158A  	fcall	stringtab
  1950     0E2B  120A  158A  25FC  120A  158A  	fcall	i1_lcd_data
  1951     0E30                     i1l1593:
  1952                           
  1953                           ;main.c: 57:     lcd_command(0x28);
  1954     0E30  3001               	movlw	1
  1955     0E31  00FF               	movwf	btemp+1
  1956     0E32  087F               	movf	btemp+1,w
  1957     0E33  07F7               	addwf	i1lcd_string@i,f
  1958     0E34                     i1l1595:
  1959     0E34  0876               	movf	i1lcd_string@num,w
  1960     0E35  0277               	subwf	i1lcd_string@i,w
  1961     0E36  1C03               	skipc
  1962     0E37  2E39               	goto	u189_21
  1963     0E38  2E3A               	goto	u189_20
  1964     0E39                     u189_21:
  1965     0E39  2E1D               	goto	i1l1591
  1966     0E3A                     u189_20:
  1967     0E3A                     i1l87:
  1968     0E3A  0008               	return
  1969     0E3B                     __end_ofi1_lcd_string:
  1970                           
  1971                           	psect	text11
  1972     0DFC                     __ptext11:	
  1973 ;; *************** function i1_lcd_data *****************
  1974 ;; Defined at:
  1975 ;;		line 46 in file "main.c"
  1976 ;; Parameters:    Size  Location     Type
  1977 ;;  data            1    wreg     unsigned char 
  1978 ;; Auto vars:     Size  Location     Type
  1979 ;;  data            1    3[COMMON] unsigned char 
  1980 ;; Return value:  Size  Location     Type
  1981 ;;                  1    wreg      void 
  1982 ;; Registers used:
  1983 ;;		wreg, status,2, status,0, pclath, cstack
  1984 ;; Tracked objects:
  1985 ;;		On entry : 0/0
  1986 ;;		On exit  : 0/0
  1987 ;;		Unchanged: 0/0
  1988 ;; Data sizes:     COMMON   BANK0   BANK1   BANK3   BANK2
  1989 ;;      Params:         0       0       0       0       0
  1990 ;;      Locals:         1       0       0       0       0
  1991 ;;      Temps:          1       0       0       0       0
  1992 ;;      Totals:         2       0       0       0       0
  1993 ;;Total ram usage:        2 bytes
  1994 ;; Hardware stack levels used: 1
  1995 ;; Hardware stack levels required when called: 1
  1996 ;; This function calls:
  1997 ;;		i1_lcd_nibble
  1998 ;; This function is called by:
  1999 ;;		i1_lcd_string
  2000 ;; This function uses a non-reentrant model
  2001 ;;
  2002                           
  2003     0DFC                     i1_lcd_data:	
  2004                           ;psect for function i1_lcd_data
  2005                           
  2006                           
  2007                           ;incstack = 0
  2008                           ; Regs used in i1_lcd_data: [wreg+status,2+status,0+pclath+cstack]
  2009                           ;i1lcd_data@data stored from wreg
  2010     0DFC  00F3               	movwf	i1lcd_data@data
  2011     0DFD                     i1l1333:
  2012                           
  2013                           ;main.c: 47:     _delay((unsigned long)((20)*(20000000/4000.0)));
  2014     0DFD  1283               	bcf	3,5	;RP0=0, select bank0
  2015     0DFE  1303               	bcf	3,6	;RP1=0, select bank0
  2016     0DFF  1409               	bsf	9,0	;volatile
  2017     0E00                     i1l1335:
  2018                           
  2019                           ;main.c: 48:     lcd_nibble(0x30);
  2020     0E00  0873               	movf	i1lcd_data@data,w
  2021     0E01  120A  158A  25C4  120A  158A  	fcall	i1_lcd_nibble
  2022                           
  2023                           ;main.c: 49:     _delay((unsigned long)((5)*(20000000/4000.0)));
  2024     0E06  0873               	movf	i1lcd_data@data,w
  2025     0E07  00F2               	movwf	??i1_lcd_data
  2026     0E08  3003               	movlw	3
  2027     0E09                     u124_25:
  2028     0E09  1003               	clrc
  2029     0E0A  0DF2               	rlf	??i1_lcd_data,f
  2030     0E0B  3EFF               	addlw	-1
  2031     0E0C  1D03               	skipz
  2032     0E0D  2E09               	goto	u124_25
  2033     0E0E  1003               	clrc
  2034     0E0F  0D72               	rlf	??i1_lcd_data,w
  2035     0E10  120A  158A  25C4  120A  158A  	fcall	i1_lcd_nibble
  2036     0E15                     i1l1337:
  2037                           
  2038                           ;main.c: 50:     lcd_nibble(0x30);
  2039     0E15  30A6               	movlw	166
  2040     0E16  00F2               	movwf	??i1_lcd_data
  2041     0E17                     u251_27:
  2042     0E17  0BF2               	decfsz	??i1_lcd_data,f
  2043     0E18  2E17               	goto	u251_27
  2044     0E19  0000               	nop
  2045     0E1A                     i1l81:
  2046     0E1A  0008               	return
  2047     0E1B                     __end_ofi1_lcd_data:
  2048                           
  2049                           	psect	text12
  2050     0E3B                     __ptext12:	
  2051 ;; *************** function i1_lcd_command *****************
  2052 ;; Defined at:
  2053 ;;		line 39 in file "main.c"
  2054 ;; Parameters:    Size  Location     Type
  2055 ;;  cmd             1    wreg     unsigned char 
  2056 ;; Auto vars:     Size  Location     Type
  2057 ;;  cmd             1    4[COMMON] unsigned char 
  2058 ;; Return value:  Size  Location     Type
  2059 ;;                  1    wreg      void 
  2060 ;; Registers used:
  2061 ;;		wreg, status,2, status,0, pclath, cstack
  2062 ;; Tracked objects:
  2063 ;;		On entry : 0/0
  2064 ;;		On exit  : 0/0
  2065 ;;		Unchanged: 0/0
  2066 ;; Data sizes:     COMMON   BANK0   BANK1   BANK3   BANK2
  2067 ;;      Params:         0       0       0       0       0
  2068 ;;      Locals:         1       0       0       0       0
  2069 ;;      Temps:          2       0       0       0       0
  2070 ;;      Totals:         3       0       0       0       0
  2071 ;;Total ram usage:        3 bytes
  2072 ;; Hardware stack levels used: 1
  2073 ;; Hardware stack levels required when called: 1
  2074 ;; This function calls:
  2075 ;;		i1_lcd_nibble
  2076 ;; This function is called by:
  2077 ;;		_lcd_print
  2078 ;; This function uses a non-reentrant model
  2079 ;;
  2080                           
  2081     0E3B                     i1_lcd_command:	
  2082                           ;psect for function i1_lcd_command
  2083                           
  2084                           
  2085                           ;incstack = 0
  2086                           ; Regs used in i1_lcd_command: [wreg+status,2+status,0+pclath+cstack]
  2087                           ;i1lcd_command@cmd stored from wreg
  2088     0E3B  00F4               	movwf	i1lcd_command@cmd
  2089     0E3C                     i1l1583:
  2090                           
  2091                           ;main.c: 40:     unsigned char i;
  2092     0E3C  1283               	bcf	3,5	;RP0=0, select bank0
  2093     0E3D  1303               	bcf	3,6	;RP1=0, select bank0
  2094     0E3E  1009               	bcf	9,0	;volatile
  2095     0E3F                     i1l1585:
  2096                           
  2097                           ;main.c: 41:     for (i = 0; i < num; i++) {
  2098     0E3F  0874               	movf	i1lcd_command@cmd,w
  2099     0E40  120A  158A  25C4  120A  158A  	fcall	i1_lcd_nibble
  2100                           
  2101                           ;main.c: 42:         lcd_data(str[i]);
  2102     0E45  0874               	movf	i1lcd_command@cmd,w
  2103     0E46  00F2               	movwf	??i1_lcd_command
  2104     0E47  3003               	movlw	3
  2105     0E48                     u188_25:
  2106     0E48  1003               	clrc
  2107     0E49  0DF2               	rlf	??i1_lcd_command,f
  2108     0E4A  3EFF               	addlw	-1
  2109     0E4B  1D03               	skipz
  2110     0E4C  2E48               	goto	u188_25
  2111     0E4D  1003               	clrc
  2112     0E4E  0D72               	rlf	??i1_lcd_command,w
  2113     0E4F  120A  158A  25C4  120A  158A  	fcall	i1_lcd_nibble
  2114     0E54                     i1l1587:
  2115                           
  2116                           ;main.c: 43:     }
  2117     0E54  300D               	movlw	13
  2118     0E55  00F3               	movwf	??i1_lcd_command+1
  2119     0E56  30FB               	movlw	251
  2120     0E57  00F2               	movwf	??i1_lcd_command
  2121     0E58                     u252_27:
  2122     0E58  0BF2               	decfsz	??i1_lcd_command,f
  2123     0E59  2E58               	goto	u252_27
  2124     0E5A  0BF3               	decfsz	??i1_lcd_command+1,f
  2125     0E5B  2E58               	goto	u252_27
  2126     0E5C  2E5D               	nop2
  2127     0E5D                     i1l78:
  2128     0E5D  0008               	return
  2129     0E5E                     __end_ofi1_lcd_command:
  2130                           
  2131                           	psect	text13
  2132     0DC4                     __ptext13:	
  2133 ;; *************** function i1_lcd_nibble *****************
  2134 ;; Defined at:
  2135 ;;		line 31 in file "main.c"
  2136 ;; Parameters:    Size  Location     Type
  2137 ;;  data            1    wreg     unsigned char 
  2138 ;; Auto vars:     Size  Location     Type
  2139 ;;  data            1    1[COMMON] unsigned char 
  2140 ;; Return value:  Size  Location     Type
  2141 ;;                  1    wreg      void 
  2142 ;; Registers used:
  2143 ;;		wreg, status,2, status,0
  2144 ;; Tracked objects:
  2145 ;;		On entry : 0/0
  2146 ;;		On exit  : 0/0
  2147 ;;		Unchanged: 0/0
  2148 ;; Data sizes:     COMMON   BANK0   BANK1   BANK3   BANK2
  2149 ;;      Params:         0       0       0       0       0
  2150 ;;      Locals:         1       0       0       0       0
  2151 ;;      Temps:          1       0       0       0       0
  2152 ;;      Totals:         2       0       0       0       0
  2153 ;;Total ram usage:        2 bytes
  2154 ;; Hardware stack levels used: 1
  2155 ;; This function calls:
  2156 ;;		Nothing
  2157 ;; This function is called by:
  2158 ;;		i1_lcd_command
  2159 ;;		i1_lcd_data
  2160 ;; This function uses a non-reentrant model
  2161 ;;
  2162                           
  2163     0DC4                     i1_lcd_nibble:	
  2164                           ;psect for function i1_lcd_nibble
  2165                           
  2166                           
  2167                           ;incstack = 0
  2168                           ; Regs used in i1_lcd_nibble: [wreg+status,2+status,0]
  2169                           ;i1lcd_nibble@data stored from wreg
  2170     0DC4  00F1               	movwf	i1lcd_nibble@data
  2171     0DC5                     i1l1299:
  2172                           
  2173                           ;main.c: 32: void lcd_data(unsigned char data) {
  2174     0DC5  30F0               	movlw	240
  2175     0DC6  0571               	andwf	i1lcd_nibble@data,w
  2176     0DC7  00F0               	movwf	??i1_lcd_nibble
  2177     0DC8  1283               	bcf	3,5	;RP0=0, select bank0
  2178     0DC9  1303               	bcf	3,6	;RP1=0, select bank0
  2179     0DCA  0808               	movf	8,w	;volatile
  2180     0DCB  390F               	andlw	15
  2181     0DCC  0470               	iorwf	??i1_lcd_nibble,w
  2182     0DCD  0088               	movwf	8	;volatile
  2183     0DCE                     i1l1301:
  2184                           
  2185                           ;main.c: 33:     PORTEbits.RE0 = 1;
  2186     0DCE  1489               	bsf	9,1	;volatile
  2187     0DCF                     i1l1303:
  2188                           
  2189                           ;main.c: 34:     lcd_nibble(data);
  2190     0DCF  3010               	movlw	16
  2191     0DD0  00F0               	movwf	??i1_lcd_nibble
  2192     0DD1                     u253_27:
  2193     0DD1  0BF0               	decfsz	??i1_lcd_nibble,f
  2194     0DD2  2DD1               	goto	u253_27
  2195     0DD3  0000               	nop
  2196     0DD4                     i1l1305:
  2197                           
  2198                           ;main.c: 35:     lcd_nibble(data << 4);
  2199     0DD4  1283               	bcf	3,5	;RP0=0, select bank0
  2200     0DD5  1303               	bcf	3,6	;RP1=0, select bank0
  2201     0DD6  1089               	bcf	9,1	;volatile
  2202     0DD7                     i1l1307:
  2203                           
  2204                           ;main.c: 36:     _delay((unsigned long)((100)*(20000000/4000000.0)));
  2205     0DD7  3010               	movlw	16
  2206     0DD8  00F0               	movwf	??i1_lcd_nibble
  2207     0DD9                     u254_27:
  2208     0DD9  0BF0               	decfsz	??i1_lcd_nibble,f
  2209     0DDA  2DD9               	goto	u254_27
  2210     0DDB  0000               	nop
  2211     0DDC                     i1l75:
  2212     0DDC  0008               	return
  2213     0DDD                     __end_ofi1_lcd_nibble:
  2214                           
  2215                           	psect	text14
  2216     0F1D                     __ptext14:	
  2217 ;; *************** function ___lwmod *****************
  2218 ;; Defined at:
  2219 ;;		line 5 in file "C:\Program Files\Microchip\xc8\v2.46\pic\sources\c99\common\lwmod.c"
  2220 ;; Parameters:    Size  Location     Type
  2221 ;;  divisor         2    0[COMMON] unsigned int 
  2222 ;;  dividend        2    2[COMMON] unsigned int 
  2223 ;; Auto vars:     Size  Location     Type
  2224 ;;  counter         1    4[COMMON] unsigned char 
  2225 ;; Return value:  Size  Location     Type
  2226 ;;                  2    0[COMMON] unsigned int 
  2227 ;; Registers used:
  2228 ;;		wreg, status,2, status,0, btemp+1
  2229 ;; Tracked objects:
  2230 ;;		On entry : 0/0
  2231 ;;		On exit  : 0/0
  2232 ;;		Unchanged: 0/0
  2233 ;; Data sizes:     COMMON   BANK0   BANK1   BANK3   BANK2
  2234 ;;      Params:         4       0       0       0       0
  2235 ;;      Locals:         1       0       0       0       0
  2236 ;;      Temps:          0       0       0       0       0
  2237 ;;      Totals:         5       0       0       0       0
  2238 ;;Total ram usage:        5 bytes
  2239 ;; Hardware stack levels used: 1
  2240 ;; This function calls:
  2241 ;;		Nothing
  2242 ;; This function is called by:
  2243 ;;		_lcd_print
  2244 ;; This function uses a non-reentrant model
  2245 ;;
  2246                           
  2247     0F1D                     ___lwmod:	
  2248                           ;psect for function ___lwmod
  2249                           
  2250     0F1D                     i1l1419:	
  2251                           ;incstack = 0
  2252                           ; Regs used in ___lwmod: [wreg+status,2+status,0+btemp+1]
  2253                           
  2254     0F1D  0870               	movf	___lwmod@divisor,w
  2255     0F1E  0471               	iorwf	___lwmod@divisor+1,w
  2256     0F1F  1903               	btfsc	3,2
  2257     0F20  2F22               	goto	u145_21
  2258     0F21  2F23               	goto	u145_20
  2259     0F22                     u145_21:
  2260     0F22  2F52               	goto	i1l1437
  2261     0F23                     u145_20:
  2262     0F23                     i1l1421:
  2263     0F23  01F4               	clrf	___lwmod@counter
  2264     0F24  0AF4               	incf	___lwmod@counter,f
  2265     0F25  2F31               	goto	i1l1427
  2266     0F26                     i1l1423:
  2267     0F26  3001               	movlw	1
  2268     0F27                     u146_25:
  2269     0F27  1003               	clrc
  2270     0F28  0DF0               	rlf	___lwmod@divisor,f
  2271     0F29  0DF1               	rlf	___lwmod@divisor+1,f
  2272     0F2A  3EFF               	addlw	-1
  2273     0F2B  1D03               	skipz
  2274     0F2C  2F27               	goto	u146_25
  2275     0F2D                     i1l1425:
  2276     0F2D  3001               	movlw	1
  2277     0F2E  00FF               	movwf	btemp+1
  2278     0F2F  087F               	movf	btemp+1,w
  2279     0F30  07F4               	addwf	___lwmod@counter,f
  2280     0F31                     i1l1427:
  2281     0F31  1FF1               	btfss	___lwmod@divisor+1,7
  2282     0F32  2F34               	goto	u147_21
  2283     0F33  2F35               	goto	u147_20
  2284     0F34                     u147_21:
  2285     0F34  2F26               	goto	i1l1423
  2286     0F35                     u147_20:
  2287     0F35                     i1l1429:
  2288     0F35  0871               	movf	___lwmod@divisor+1,w
  2289     0F36  0273               	subwf	___lwmod@dividend+1,w
  2290     0F37  1D03               	skipz
  2291     0F38  2F3B               	goto	u148_25
  2292     0F39  0870               	movf	___lwmod@divisor,w
  2293     0F3A  0272               	subwf	___lwmod@dividend,w
  2294     0F3B                     u148_25:
  2295     0F3B  1C03               	skipc
  2296     0F3C  2F3E               	goto	u148_21
  2297     0F3D  2F3F               	goto	u148_20
  2298     0F3E                     u148_21:
  2299     0F3E  2F45               	goto	i1l1433
  2300     0F3F                     u148_20:
  2301     0F3F                     i1l1431:
  2302     0F3F  0870               	movf	___lwmod@divisor,w
  2303     0F40  02F2               	subwf	___lwmod@dividend,f
  2304     0F41  0871               	movf	___lwmod@divisor+1,w
  2305     0F42  1C03               	skipc
  2306     0F43  03F3               	decf	___lwmod@dividend+1,f
  2307     0F44  02F3               	subwf	___lwmod@dividend+1,f
  2308     0F45                     i1l1433:
  2309     0F45  3001               	movlw	1
  2310     0F46                     u149_25:
  2311     0F46  1003               	clrc
  2312     0F47  0CF1               	rrf	___lwmod@divisor+1,f
  2313     0F48  0CF0               	rrf	___lwmod@divisor,f
  2314     0F49  3EFF               	addlw	-1
  2315     0F4A  1D03               	skipz
  2316     0F4B  2F46               	goto	u149_25
  2317     0F4C                     i1l1435:
  2318     0F4C  3001               	movlw	1
  2319     0F4D  02F4               	subwf	___lwmod@counter,f
  2320     0F4E  1D03               	btfss	3,2
  2321     0F4F  2F51               	goto	u150_21
  2322     0F50  2F52               	goto	u150_20
  2323     0F51                     u150_21:
  2324     0F51  2F35               	goto	i1l1429
  2325     0F52                     u150_20:
  2326     0F52                     i1l1437:
  2327     0F52  0873               	movf	___lwmod@dividend+1,w
  2328     0F53  00F1               	movwf	?___lwmod+1
  2329     0F54  0872               	movf	___lwmod@dividend,w
  2330     0F55  00F0               	movwf	?___lwmod
  2331     0F56                     i1l509:
  2332     0F56  0008               	return
  2333     0F57                     __end_of___lwmod:
  2334                           
  2335                           	psect	text15
  2336     0F57                     __ptext15:	
  2337 ;; *************** function ___lwdiv *****************
  2338 ;; Defined at:
  2339 ;;		line 5 in file "C:\Program Files\Microchip\xc8\v2.46\pic\sources\c99\common\lwdiv.c"
  2340 ;; Parameters:    Size  Location     Type
  2341 ;;  divisor         2    5[COMMON] unsigned int 
  2342 ;;  dividend        2    7[COMMON] unsigned int 
  2343 ;; Auto vars:     Size  Location     Type
  2344 ;;  quotient        2    9[COMMON] unsigned int 
  2345 ;;  counter         1   11[COMMON] unsigned char 
  2346 ;; Return value:  Size  Location     Type
  2347 ;;                  2    5[COMMON] unsigned int 
  2348 ;; Registers used:
  2349 ;;		wreg, status,2, status,0, btemp+1
  2350 ;; Tracked objects:
  2351 ;;		On entry : 0/0
  2352 ;;		On exit  : 0/0
  2353 ;;		Unchanged: 0/0
  2354 ;; Data sizes:     COMMON   BANK0   BANK1   BANK3   BANK2
  2355 ;;      Params:         4       0       0       0       0
  2356 ;;      Locals:         3       0       0       0       0
  2357 ;;      Temps:          0       0       0       0       0
  2358 ;;      Totals:         7       0       0       0       0
  2359 ;;Total ram usage:        7 bytes
  2360 ;; Hardware stack levels used: 1
  2361 ;; This function calls:
  2362 ;;		Nothing
  2363 ;; This function is called by:
  2364 ;;		_lcd_print
  2365 ;; This function uses a non-reentrant model
  2366 ;;
  2367                           
  2368     0F57                     ___lwdiv:	
  2369                           ;psect for function ___lwdiv
  2370                           
  2371     0F57                     i1l1393:	
  2372                           ;incstack = 0
  2373                           ; Regs used in ___lwdiv: [wreg+status,2+status,0+btemp+1]
  2374                           
  2375     0F57  01F9               	clrf	___lwdiv@quotient
  2376     0F58  01FA               	clrf	___lwdiv@quotient+1
  2377     0F59                     i1l1395:
  2378     0F59  0875               	movf	___lwdiv@divisor,w
  2379     0F5A  0476               	iorwf	___lwdiv@divisor+1,w
  2380     0F5B  1903               	btfsc	3,2
  2381     0F5C  2F5E               	goto	u138_21
  2382     0F5D  2F5F               	goto	u138_20
  2383     0F5E                     u138_21:
  2384     0F5E  2F96               	goto	i1l1415
  2385     0F5F                     u138_20:
  2386     0F5F                     i1l1397:
  2387     0F5F  01FB               	clrf	___lwdiv@counter
  2388     0F60  0AFB               	incf	___lwdiv@counter,f
  2389     0F61  2F6D               	goto	i1l1403
  2390     0F62                     i1l1399:
  2391     0F62  3001               	movlw	1
  2392     0F63                     u139_25:
  2393     0F63  1003               	clrc
  2394     0F64  0DF5               	rlf	___lwdiv@divisor,f
  2395     0F65  0DF6               	rlf	___lwdiv@divisor+1,f
  2396     0F66  3EFF               	addlw	-1
  2397     0F67  1D03               	skipz
  2398     0F68  2F63               	goto	u139_25
  2399     0F69                     i1l1401:
  2400     0F69  3001               	movlw	1
  2401     0F6A  00FF               	movwf	btemp+1
  2402     0F6B  087F               	movf	btemp+1,w
  2403     0F6C  07FB               	addwf	___lwdiv@counter,f
  2404     0F6D                     i1l1403:
  2405     0F6D  1FF6               	btfss	___lwdiv@divisor+1,7
  2406     0F6E  2F70               	goto	u140_21
  2407     0F6F  2F71               	goto	u140_20
  2408     0F70                     u140_21:
  2409     0F70  2F62               	goto	i1l1399
  2410     0F71                     u140_20:
  2411     0F71                     i1l1405:
  2412     0F71  3001               	movlw	1
  2413     0F72                     u141_25:
  2414     0F72  1003               	clrc
  2415     0F73  0DF9               	rlf	___lwdiv@quotient,f
  2416     0F74  0DFA               	rlf	___lwdiv@quotient+1,f
  2417     0F75  3EFF               	addlw	-1
  2418     0F76  1D03               	skipz
  2419     0F77  2F72               	goto	u141_25
  2420     0F78  0876               	movf	___lwdiv@divisor+1,w
  2421     0F79  0278               	subwf	___lwdiv@dividend+1,w
  2422     0F7A  1D03               	skipz
  2423     0F7B  2F7E               	goto	u142_25
  2424     0F7C  0875               	movf	___lwdiv@divisor,w
  2425     0F7D  0277               	subwf	___lwdiv@dividend,w
  2426     0F7E                     u142_25:
  2427     0F7E  1C03               	skipc
  2428     0F7F  2F81               	goto	u142_21
  2429     0F80  2F82               	goto	u142_20
  2430     0F81                     u142_21:
  2431     0F81  2F89               	goto	i1l1411
  2432     0F82                     u142_20:
  2433     0F82                     i1l1407:
  2434     0F82  0875               	movf	___lwdiv@divisor,w
  2435     0F83  02F7               	subwf	___lwdiv@dividend,f
  2436     0F84  0876               	movf	___lwdiv@divisor+1,w
  2437     0F85  1C03               	skipc
  2438     0F86  03F8               	decf	___lwdiv@dividend+1,f
  2439     0F87  02F8               	subwf	___lwdiv@dividend+1,f
  2440     0F88                     i1l1409:
  2441     0F88  1479               	bsf	___lwdiv@quotient,0
  2442     0F89                     i1l1411:
  2443     0F89  3001               	movlw	1
  2444     0F8A                     u143_25:
  2445     0F8A  1003               	clrc
  2446     0F8B  0CF6               	rrf	___lwdiv@divisor+1,f
  2447     0F8C  0CF5               	rrf	___lwdiv@divisor,f
  2448     0F8D  3EFF               	addlw	-1
  2449     0F8E  1D03               	skipz
  2450     0F8F  2F8A               	goto	u143_25
  2451     0F90                     i1l1413:
  2452     0F90  3001               	movlw	1
  2453     0F91  02FB               	subwf	___lwdiv@counter,f
  2454     0F92  1D03               	btfss	3,2
  2455     0F93  2F95               	goto	u144_21
  2456     0F94  2F96               	goto	u144_20
  2457     0F95                     u144_21:
  2458     0F95  2F71               	goto	i1l1405
  2459     0F96                     u144_20:
  2460     0F96                     i1l1415:
  2461     0F96  087A               	movf	___lwdiv@quotient+1,w
  2462     0F97  00F6               	movwf	?___lwdiv+1
  2463     0F98  0879               	movf	___lwdiv@quotient,w
  2464     0F99  00F5               	movwf	?___lwdiv
  2465     0F9A                     i1l499:
  2466     0F9A  0008               	return
  2467     0F9B                     __end_of___lwdiv:
  2468                           
  2469                           	psect	text16
  2470     0748                     __ptext16:	
  2471 ;; *************** function ___fltol *****************
  2472 ;; Defined at:
  2473 ;;		line 43 in file "C:\Program Files\Microchip\xc8\v2.46\pic\sources\c99\common\fltol.c"
  2474 ;; Parameters:    Size  Location     Type
  2475 ;;  f1              4   26[BANK0 ] unsigned int 
  2476 ;; Auto vars:     Size  Location     Type
  2477 ;;  exp1            1   35[BANK0 ] unsigned char 
  2478 ;;  sign1           1   34[BANK0 ] unsigned char 
  2479 ;; Return value:  Size  Location     Type
  2480 ;;                  4   26[BANK0 ] long 
  2481 ;; Registers used:
  2482 ;;		wreg, status,2, status,0, btemp+1
  2483 ;; Tracked objects:
  2484 ;;		On entry : 0/0
  2485 ;;		On exit  : 0/0
  2486 ;;		Unchanged: 0/0
  2487 ;; Data sizes:     COMMON   BANK0   BANK1   BANK3   BANK2
  2488 ;;      Params:         0       4       0       0       0
  2489 ;;      Locals:         0       2       0       0       0
  2490 ;;      Temps:          0       4       0       0       0
  2491 ;;      Totals:         0      10       0       0       0
  2492 ;;Total ram usage:       10 bytes
  2493 ;; Hardware stack levels used: 1
  2494 ;; This function calls:
  2495 ;;		Nothing
  2496 ;; This function is called by:
  2497 ;;		_lcd_print
  2498 ;; This function uses a non-reentrant model
  2499 ;;
  2500                           
  2501     0748                     ___fltol:	
  2502                           ;psect for function ___fltol
  2503                           
  2504     0748                     i1l1355:	
  2505                           ;incstack = 0
  2506                           ; Regs used in ___fltol: [wreg+status,2+status,0+btemp+1]
  2507                           
  2508     0748  1003               	clrc
  2509     0749  1283               	bcf	3,5	;RP0=0, select bank0
  2510     074A  1303               	bcf	3,6	;RP1=0, select bank0
  2511     074B  0D3C               	rlf	___fltol@f1+2,w
  2512     074C  0D3D               	rlf	___fltol@f1+3,w
  2513     074D  00C3               	movwf	___fltol@exp1
  2514     074E  0843               	movf	___fltol@exp1,w
  2515     074F  1D03               	btfss	3,2
  2516     0750  2F52               	goto	u128_21
  2517     0751  2F53               	goto	u128_20
  2518     0752                     u128_21:
  2519     0752  2F5C               	goto	i1l1361
  2520     0753                     u128_20:
  2521     0753                     i1l1357:
  2522     0753  3000               	movlw	0
  2523     0754  00BD               	movwf	?___fltol+3
  2524     0755  3000               	movlw	0
  2525     0756  00BC               	movwf	?___fltol+2
  2526     0757  3000               	movlw	0
  2527     0758  00BB               	movwf	?___fltol+1
  2528     0759  3000               	movlw	0
  2529     075A  00BA               	movwf	?___fltol
  2530     075B  2FBF               	goto	i1l413
  2531     075C                     i1l1361:
  2532     075C  083A               	movf	___fltol@f1,w
  2533     075D  00BE               	movwf	??___fltol
  2534     075E  083B               	movf	___fltol@f1+1,w
  2535     075F  00BF               	movwf	??___fltol+1
  2536     0760  083C               	movf	___fltol@f1+2,w
  2537     0761  00C0               	movwf	??___fltol+2
  2538     0762  083D               	movf	___fltol@f1+3,w
  2539     0763  00C1               	movwf	??___fltol+3
  2540     0764  301F               	movlw	31
  2541     0765                     u129_25:
  2542     0765  1003               	clrc
  2543     0766  0CC1               	rrf	??___fltol+3,f
  2544     0767  0CC0               	rrf	??___fltol+2,f
  2545     0768  0CBF               	rrf	??___fltol+1,f
  2546     0769  0CBE               	rrf	??___fltol,f
  2547     076A                     u129_20:
  2548     076A  3EFF               	addlw	-1
  2549     076B  1D03               	skipz
  2550     076C  2F65               	goto	u129_25
  2551     076D  083E               	movf	??___fltol,w
  2552     076E  00C2               	movwf	___fltol@sign1
  2553     076F                     i1l1363:
  2554     076F  17BC               	bsf	___fltol@f1+2,7
  2555     0770                     i1l1365:
  2556     0770  30FF               	movlw	255
  2557     0771  05BA               	andwf	___fltol@f1,f
  2558     0772  30FF               	movlw	255
  2559     0773  05BB               	andwf	___fltol@f1+1,f
  2560     0774  30FF               	movlw	255
  2561     0775  05BC               	andwf	___fltol@f1+2,f
  2562     0776  3000               	movlw	0
  2563     0777  05BD               	andwf	___fltol@f1+3,f
  2564     0778                     i1l1367:
  2565     0778  3096               	movlw	150
  2566     0779  02C3               	subwf	___fltol@exp1,f
  2567     077A                     i1l1369:
  2568     077A  1FC3               	btfss	___fltol@exp1,7
  2569     077B  2F7D               	goto	u130_21
  2570     077C  2F7E               	goto	u130_20
  2571     077D                     u130_21:
  2572     077D  2F98               	goto	i1l1381
  2573     077E                     u130_20:
  2574     077E                     i1l1371:
  2575     077E  0843               	movf	___fltol@exp1,w
  2576     077F  3A80               	xorlw	128
  2577     0780  3E97               	addlw	151
  2578     0781  1803               	skipnc
  2579     0782  2F84               	goto	u131_21
  2580     0783  2F85               	goto	u131_20
  2581     0784                     u131_21:
  2582     0784  2F86               	goto	i1l1377
  2583     0785                     u131_20:
  2584     0785  2F53               	goto	i1l1357
  2585     0786                     i1l1377:
  2586     0786  3001               	movlw	1
  2587     0787                     u132_25:
  2588     0787  1003               	clrc
  2589     0788  0CBD               	rrf	___fltol@f1+3,f
  2590     0789  0CBC               	rrf	___fltol@f1+2,f
  2591     078A  0CBB               	rrf	___fltol@f1+1,f
  2592     078B  0CBA               	rrf	___fltol@f1,f
  2593     078C  3EFF               	addlw	-1
  2594     078D  1D03               	skipz
  2595     078E  2F87               	goto	u132_25
  2596     078F                     i1l1379:
  2597     078F  3001               	movlw	1
  2598     0790  00FF               	movwf	btemp+1
  2599     0791  087F               	movf	btemp+1,w
  2600     0792  07C3               	addwf	___fltol@exp1,f
  2601     0793  1D03               	btfss	3,2
  2602     0794  2F96               	goto	u133_21
  2603     0795  2F97               	goto	u133_20
  2604     0796                     u133_21:
  2605     0796  2F86               	goto	i1l1377
  2606     0797                     u133_20:
  2607     0797  2FAF               	goto	i1l1389
  2608     0798                     i1l1381:
  2609     0798  3020               	movlw	32
  2610     0799  0243               	subwf	___fltol@exp1,w
  2611     079A  1C03               	skipc
  2612     079B  2F9D               	goto	u134_21
  2613     079C  2F9E               	goto	u134_20
  2614     079D                     u134_21:
  2615     079D  2FAA               	goto	i1l420
  2616     079E                     u134_20:
  2617     079E  2F53               	goto	i1l1357
  2618     079F                     i1l1387:
  2619     079F  3001               	movlw	1
  2620     07A0  00BE               	movwf	??___fltol
  2621     07A1                     u135_25:
  2622     07A1  1003               	clrc
  2623     07A2  0DBA               	rlf	___fltol@f1,f
  2624     07A3  0DBB               	rlf	___fltol@f1+1,f
  2625     07A4  0DBC               	rlf	___fltol@f1+2,f
  2626     07A5  0DBD               	rlf	___fltol@f1+3,f
  2627     07A6  0BBE               	decfsz	??___fltol,f
  2628     07A7  2FA1               	goto	u135_25
  2629     07A8  3001               	movlw	1
  2630     07A9  02C3               	subwf	___fltol@exp1,f
  2631     07AA                     i1l420:
  2632     07AA  0843               	movf	___fltol@exp1,w
  2633     07AB  1D03               	btfss	3,2
  2634     07AC  2FAE               	goto	u136_21
  2635     07AD  2FAF               	goto	u136_20
  2636     07AE                     u136_21:
  2637     07AE  2F9F               	goto	i1l1387
  2638     07AF                     u136_20:
  2639     07AF                     i1l1389:
  2640     07AF  0842               	movf	___fltol@sign1,w
  2641     07B0  1903               	btfsc	3,2
  2642     07B1  2FB3               	goto	u137_21
  2643     07B2  2FB4               	goto	u137_20
  2644     07B3                     u137_21:
  2645     07B3  2FBF               	goto	i1l423
  2646     07B4                     u137_20:
  2647     07B4                     i1l1391:
  2648     07B4  09BA               	comf	___fltol@f1,f
  2649     07B5  09BB               	comf	___fltol@f1+1,f
  2650     07B6  09BC               	comf	___fltol@f1+2,f
  2651     07B7  09BD               	comf	___fltol@f1+3,f
  2652     07B8  0ABA               	incf	___fltol@f1,f
  2653     07B9  1903               	skipnz
  2654     07BA  0ABB               	incf	___fltol@f1+1,f
  2655     07BB  1903               	skipnz
  2656     07BC  0ABC               	incf	___fltol@f1+2,f
  2657     07BD  1903               	skipnz
  2658     07BE  0ABD               	incf	___fltol@f1+3,f
  2659     07BF                     i1l423:
  2660     07BF                     i1l413:
  2661     07BF  0008               	return
  2662     07C0                     __end_of___fltol:
  2663                           
  2664                           	psect	text17
  2665     002A                     __ptext17:	
  2666 ;; *************** function ___flmul *****************
  2667 ;; Defined at:
  2668 ;;		line 8 in file "C:\Program Files\Microchip\xc8\v2.46\pic\sources\c99\common\sprcmul.c"
  2669 ;; Parameters:    Size  Location     Type
  2670 ;;  b               4    0[BANK0 ] long 
  2671 ;;  a               4    4[BANK0 ] long 
  2672 ;; Auto vars:     Size  Location     Type
  2673 ;;  prod            4   20[BANK0 ] struct .
  2674 ;;  grs             4   14[BANK0 ] unsigned long 
  2675 ;;  temp            2   24[BANK0 ] struct .
  2676 ;;  bexp            1   19[BANK0 ] unsigned char 
  2677 ;;  aexp            1   18[BANK0 ] unsigned char 
  2678 ;;  sign            1   13[BANK0 ] unsigned char 
  2679 ;; Return value:  Size  Location     Type
  2680 ;;                  4    0[BANK0 ] unsigned char 
  2681 ;; Registers used:
  2682 ;;		wreg, status,2, status,0, btemp+1, pclath, cstack
  2683 ;; Tracked objects:
  2684 ;;		On entry : 0/0
  2685 ;;		On exit  : 0/0
  2686 ;;		Unchanged: 0/0
  2687 ;; Data sizes:     COMMON   BANK0   BANK1   BANK3   BANK2
  2688 ;;      Params:         0       8       0       0       0
  2689 ;;      Locals:         0      13       0       0       0
  2690 ;;      Temps:          0       5       0       0       0
  2691 ;;      Totals:         0      26       0       0       0
  2692 ;;Total ram usage:       26 bytes
  2693 ;; Hardware stack levels used: 1
  2694 ;; Hardware stack levels required when called: 1
  2695 ;; This function calls:
  2696 ;;		__Umul8_16
  2697 ;; This function is called by:
  2698 ;;		_lcd_print
  2699 ;;		_isr
  2700 ;; This function uses a non-reentrant model
  2701 ;;
  2702                           
  2703     002A                     ___flmul:	
  2704                           ;psect for function ___flmul
  2705                           
  2706     002A                     i1l1441:	
  2707                           ;incstack = 0
  2708                           ; Regs used in ___flmul: [wreg+status,2+status,0+btemp+1+pclath+cstack]
  2709                           
  2710     002A  1283               	bcf	3,5	;RP0=0, select bank0
  2711     002B  1303               	bcf	3,6	;RP1=0, select bank0
  2712     002C  0823               	movf	___flmul@b+3,w
  2713     002D  3980               	andlw	128
  2714     002E  00AD               	movwf	___flmul@sign
  2715     002F                     i1l1443:
  2716     002F  0823               	movf	___flmul@b+3,w
  2717     0030  00A8               	movwf	??___flmul
  2718     0031  0728               	addwf	??___flmul,w
  2719     0032  00B3               	movwf	___flmul@bexp
  2720     0033                     i1l1445:
  2721     0033  1FA2               	btfss	___flmul@b+2,7
  2722     0034  2836               	goto	u151_21
  2723     0035  2837               	goto	u151_20
  2724     0036                     u151_21:
  2725     0036  2838               	goto	i1l1449
  2726     0037                     u151_20:
  2727     0037                     i1l1447:
  2728     0037  1433               	bsf	___flmul@bexp,0
  2729     0038                     i1l1449:
  2730     0038  0833               	movf	___flmul@bexp,w
  2731     0039  1903               	btfsc	3,2
  2732     003A  283C               	goto	u152_21
  2733     003B  283D               	goto	u152_20
  2734     003C                     u152_21:
  2735     003C  284C               	goto	i1l1457
  2736     003D                     u152_20:
  2737     003D                     i1l1451:
  2738     003D  0A33               	incf	___flmul@bexp,w
  2739     003E  1D03               	btfss	3,2
  2740     003F  2841               	goto	u153_21
  2741     0040  2842               	goto	u153_20
  2742     0041                     u153_21:
  2743     0041  284A               	goto	i1l1455
  2744     0042                     u153_20:
  2745     0042                     i1l1453:
  2746     0042  3000               	movlw	0
  2747     0043  00A3               	movwf	___flmul@b+3
  2748     0044  3000               	movlw	0
  2749     0045  00A2               	movwf	___flmul@b+2
  2750     0046  3000               	movlw	0
  2751     0047  00A1               	movwf	___flmul@b+1
  2752     0048  3000               	movlw	0
  2753     0049  00A0               	movwf	___flmul@b
  2754     004A                     i1l1455:
  2755     004A  17A2               	bsf	___flmul@b+2,7
  2756     004B  2854               	goto	i1l1459
  2757     004C                     i1l1457:
  2758     004C  3000               	movlw	0
  2759     004D  00A3               	movwf	___flmul@b+3
  2760     004E  3000               	movlw	0
  2761     004F  00A2               	movwf	___flmul@b+2
  2762     0050  3000               	movlw	0
  2763     0051  00A1               	movwf	___flmul@b+1
  2764     0052  3000               	movlw	0
  2765     0053  00A0               	movwf	___flmul@b
  2766     0054                     i1l1459:
  2767     0054  0827               	movf	___flmul@a+3,w
  2768     0055  3980               	andlw	128
  2769     0056  00FF               	movwf	btemp+1
  2770     0057  087F               	movf	btemp+1,w
  2771     0058  06AD               	xorwf	___flmul@sign,f
  2772     0059                     i1l1461:
  2773     0059  0827               	movf	___flmul@a+3,w
  2774     005A  00A8               	movwf	??___flmul
  2775     005B  0728               	addwf	??___flmul,w
  2776     005C  00B2               	movwf	___flmul@aexp
  2777     005D                     i1l1463:
  2778     005D  1FA6               	btfss	___flmul@a+2,7
  2779     005E  2860               	goto	u154_21
  2780     005F  2861               	goto	u154_20
  2781     0060                     u154_21:
  2782     0060  2862               	goto	i1l1467
  2783     0061                     u154_20:
  2784     0061                     i1l1465:
  2785     0061  1432               	bsf	___flmul@aexp,0
  2786     0062                     i1l1467:
  2787     0062  0832               	movf	___flmul@aexp,w
  2788     0063  1903               	btfsc	3,2
  2789     0064  2866               	goto	u155_21
  2790     0065  2867               	goto	u155_20
  2791     0066                     u155_21:
  2792     0066  2876               	goto	i1l1475
  2793     0067                     u155_20:
  2794     0067                     i1l1469:
  2795     0067  0A32               	incf	___flmul@aexp,w
  2796     0068  1D03               	btfss	3,2
  2797     0069  286B               	goto	u156_21
  2798     006A  286C               	goto	u156_20
  2799     006B                     u156_21:
  2800     006B  2874               	goto	i1l1473
  2801     006C                     u156_20:
  2802     006C                     i1l1471:
  2803     006C  3000               	movlw	0
  2804     006D  00A7               	movwf	___flmul@a+3
  2805     006E  3000               	movlw	0
  2806     006F  00A6               	movwf	___flmul@a+2
  2807     0070  3000               	movlw	0
  2808     0071  00A5               	movwf	___flmul@a+1
  2809     0072  3000               	movlw	0
  2810     0073  00A4               	movwf	___flmul@a
  2811     0074                     i1l1473:
  2812     0074  17A6               	bsf	___flmul@a+2,7
  2813     0075  287E               	goto	i1l1477
  2814     0076                     i1l1475:
  2815     0076  3000               	movlw	0
  2816     0077  00A7               	movwf	___flmul@a+3
  2817     0078  3000               	movlw	0
  2818     0079  00A6               	movwf	___flmul@a+2
  2819     007A  3000               	movlw	0
  2820     007B  00A5               	movwf	___flmul@a+1
  2821     007C  3000               	movlw	0
  2822     007D  00A4               	movwf	___flmul@a
  2823     007E                     i1l1477:
  2824     007E  0832               	movf	___flmul@aexp,w
  2825     007F  1903               	btfsc	3,2
  2826     0080  2882               	goto	u157_21
  2827     0081  2883               	goto	u157_20
  2828     0082                     u157_21:
  2829     0082  2888               	goto	i1l1481
  2830     0083                     u157_20:
  2831     0083                     i1l1479:
  2832     0083  0833               	movf	___flmul@bexp,w
  2833     0084  1D03               	btfss	3,2
  2834     0085  2887               	goto	u158_21
  2835     0086  2888               	goto	u158_20
  2836     0087                     u158_21:
  2837     0087  2891               	goto	i1l1485
  2838     0088                     u158_20:
  2839     0088                     i1l1481:
  2840     0088  3000               	movlw	0
  2841     0089  00A3               	movwf	?___flmul+3
  2842     008A  3000               	movlw	0
  2843     008B  00A2               	movwf	?___flmul+2
  2844     008C  3000               	movlw	0
  2845     008D  00A1               	movwf	?___flmul+1
  2846     008E  3000               	movlw	0
  2847     008F  00A0               	movwf	?___flmul
  2848     0090  2B6E               	goto	i1l616
  2849     0091                     i1l1485:
  2850     0091  0820               	movf	___flmul@b,w
  2851     0092  00F0               	movwf	__Umul8_16@multiplicand
  2852     0093  0826               	movf	___flmul@a+2,w
  2853     0094  120A  158A  26A5  120A  118A  	fcall	__Umul8_16
  2854     0099  0871               	movf	?__Umul8_16+1,w
  2855     009A  1283               	bcf	3,5	;RP0=0, select bank0
  2856     009B  1303               	bcf	3,6	;RP1=0, select bank0
  2857     009C  00B9               	movwf	___flmul@temp+1
  2858     009D  0870               	movf	?__Umul8_16,w
  2859     009E  00B8               	movwf	___flmul@temp
  2860     009F                     i1l1487:
  2861     009F  0838               	movf	___flmul@temp,w
  2862     00A0  00A8               	movwf	??___flmul
  2863     00A1  01A9               	clrf	??___flmul+1
  2864     00A2  01AA               	clrf	??___flmul+2
  2865     00A3  01AB               	clrf	??___flmul+3
  2866     00A4  082B               	movf	??___flmul+3,w
  2867     00A5  00B1               	movwf	___flmul@grs+3
  2868     00A6  082A               	movf	??___flmul+2,w
  2869     00A7  00B0               	movwf	___flmul@grs+2
  2870     00A8  0829               	movf	??___flmul+1,w
  2871     00A9  00AF               	movwf	___flmul@grs+1
  2872     00AA  0828               	movf	??___flmul,w
  2873     00AB  00AE               	movwf	___flmul@grs
  2874     00AC                     i1l1489:
  2875     00AC  0839               	movf	___flmul@temp+1,w
  2876     00AD  00A8               	movwf	??___flmul
  2877     00AE  01A9               	clrf	??___flmul+1
  2878     00AF  01AA               	clrf	??___flmul+2
  2879     00B0  01AB               	clrf	??___flmul+3
  2880     00B1  082B               	movf	??___flmul+3,w
  2881     00B2  00B7               	movwf	___flmul@prod+3
  2882     00B3  082A               	movf	??___flmul+2,w
  2883     00B4  00B6               	movwf	___flmul@prod+2
  2884     00B5  0829               	movf	??___flmul+1,w
  2885     00B6  00B5               	movwf	___flmul@prod+1
  2886     00B7  0828               	movf	??___flmul,w
  2887     00B8  00B4               	movwf	___flmul@prod
  2888     00B9  0821               	movf	___flmul@b+1,w
  2889     00BA  00F0               	movwf	__Umul8_16@multiplicand
  2890     00BB  0825               	movf	___flmul@a+1,w
  2891     00BC  120A  158A  26A5  120A  118A  	fcall	__Umul8_16
  2892     00C1  0871               	movf	?__Umul8_16+1,w
  2893     00C2  1283               	bcf	3,5	;RP0=0, select bank0
  2894     00C3  1303               	bcf	3,6	;RP1=0, select bank0
  2895     00C4  00B9               	movwf	___flmul@temp+1
  2896     00C5  0870               	movf	?__Umul8_16,w
  2897     00C6  00B8               	movwf	___flmul@temp
  2898     00C7                     i1l1491:
  2899     00C7  0838               	movf	___flmul@temp,w
  2900     00C8  00A8               	movwf	??___flmul
  2901     00C9  01A9               	clrf	??___flmul+1
  2902     00CA  01AA               	clrf	??___flmul+2
  2903     00CB  01AB               	clrf	??___flmul+3
  2904     00CC  0828               	movf	??___flmul,w
  2905     00CD  07AE               	addwf	___flmul@grs,f
  2906     00CE  0829               	movf	??___flmul+1,w
  2907     00CF  1103               	clrz
  2908     00D0  1803               	skipnc
  2909     00D1  3E01               	addlw	1
  2910     00D2  1903               	skipnz
  2911     00D3  28D5               	goto	u159_21
  2912     00D4  07AF               	addwf	___flmul@grs+1,f
  2913     00D5                     u159_21:
  2914     00D5  082A               	movf	??___flmul+2,w
  2915     00D6  1103               	clrz
  2916     00D7  1803               	skipnc
  2917     00D8  3E01               	addlw	1
  2918     00D9  1903               	skipnz
  2919     00DA  28DC               	goto	u159_22
  2920     00DB  07B0               	addwf	___flmul@grs+2,f
  2921     00DC                     u159_22:
  2922     00DC  082B               	movf	??___flmul+3,w
  2923     00DD  1103               	clrz
  2924     00DE  1803               	skipnc
  2925     00DF  3E01               	addlw	1
  2926     00E0  1903               	skipnz
  2927     00E1  28E3               	goto	u159_23
  2928     00E2  07B1               	addwf	___flmul@grs+3,f
  2929     00E3                     u159_23:
  2930     00E3                     i1l1493:
  2931     00E3  0839               	movf	___flmul@temp+1,w
  2932     00E4  00A8               	movwf	??___flmul
  2933     00E5  01A9               	clrf	??___flmul+1
  2934     00E6  01AA               	clrf	??___flmul+2
  2935     00E7  01AB               	clrf	??___flmul+3
  2936     00E8  0828               	movf	??___flmul,w
  2937     00E9  07B4               	addwf	___flmul@prod,f
  2938     00EA  0829               	movf	??___flmul+1,w
  2939     00EB  1103               	clrz
  2940     00EC  1803               	skipnc
  2941     00ED  3E01               	addlw	1
  2942     00EE  1903               	skipnz
  2943     00EF  28F1               	goto	u160_21
  2944     00F0  07B5               	addwf	___flmul@prod+1,f
  2945     00F1                     u160_21:
  2946     00F1  082A               	movf	??___flmul+2,w
  2947     00F2  1103               	clrz
  2948     00F3  1803               	skipnc
  2949     00F4  3E01               	addlw	1
  2950     00F5  1903               	skipnz
  2951     00F6  28F8               	goto	u160_22
  2952     00F7  07B6               	addwf	___flmul@prod+2,f
  2953     00F8                     u160_22:
  2954     00F8  082B               	movf	??___flmul+3,w
  2955     00F9  1103               	clrz
  2956     00FA  1803               	skipnc
  2957     00FB  3E01               	addlw	1
  2958     00FC  1903               	skipnz
  2959     00FD  28FF               	goto	u160_23
  2960     00FE  07B7               	addwf	___flmul@prod+3,f
  2961     00FF                     u160_23:
  2962     00FF  0822               	movf	___flmul@b+2,w
  2963     0100  00F0               	movwf	__Umul8_16@multiplicand
  2964     0101  0824               	movf	___flmul@a,w
  2965     0102  120A  158A  26A5  120A  118A  	fcall	__Umul8_16
  2966     0107  0871               	movf	?__Umul8_16+1,w
  2967     0108  1283               	bcf	3,5	;RP0=0, select bank0
  2968     0109  1303               	bcf	3,6	;RP1=0, select bank0
  2969     010A  00B9               	movwf	___flmul@temp+1
  2970     010B  0870               	movf	?__Umul8_16,w
  2971     010C  00B8               	movwf	___flmul@temp
  2972     010D                     i1l1495:
  2973     010D  0838               	movf	___flmul@temp,w
  2974     010E  00A8               	movwf	??___flmul
  2975     010F  01A9               	clrf	??___flmul+1
  2976     0110  01AA               	clrf	??___flmul+2
  2977     0111  01AB               	clrf	??___flmul+3
  2978     0112  0828               	movf	??___flmul,w
  2979     0113  07AE               	addwf	___flmul@grs,f
  2980     0114  0829               	movf	??___flmul+1,w
  2981     0115  1103               	clrz
  2982     0116  1803               	skipnc
  2983     0117  3E01               	addlw	1
  2984     0118  1903               	skipnz
  2985     0119  291B               	goto	u161_21
  2986     011A  07AF               	addwf	___flmul@grs+1,f
  2987     011B                     u161_21:
  2988     011B  082A               	movf	??___flmul+2,w
  2989     011C  1103               	clrz
  2990     011D  1803               	skipnc
  2991     011E  3E01               	addlw	1
  2992     011F  1903               	skipnz
  2993     0120  2922               	goto	u161_22
  2994     0121  07B0               	addwf	___flmul@grs+2,f
  2995     0122                     u161_22:
  2996     0122  082B               	movf	??___flmul+3,w
  2997     0123  1103               	clrz
  2998     0124  1803               	skipnc
  2999     0125  3E01               	addlw	1
  3000     0126  1903               	skipnz
  3001     0127  2929               	goto	u161_23
  3002     0128  07B1               	addwf	___flmul@grs+3,f
  3003     0129                     u161_23:
  3004     0129                     i1l1497:
  3005     0129  0839               	movf	___flmul@temp+1,w
  3006     012A  00A8               	movwf	??___flmul
  3007     012B  01A9               	clrf	??___flmul+1
  3008     012C  01AA               	clrf	??___flmul+2
  3009     012D  01AB               	clrf	??___flmul+3
  3010     012E  0828               	movf	??___flmul,w
  3011     012F  07B4               	addwf	___flmul@prod,f
  3012     0130  0829               	movf	??___flmul+1,w
  3013     0131  1103               	clrz
  3014     0132  1803               	skipnc
  3015     0133  3E01               	addlw	1
  3016     0134  1903               	skipnz
  3017     0135  2937               	goto	u162_21
  3018     0136  07B5               	addwf	___flmul@prod+1,f
  3019     0137                     u162_21:
  3020     0137  082A               	movf	??___flmul+2,w
  3021     0138  1103               	clrz
  3022     0139  1803               	skipnc
  3023     013A  3E01               	addlw	1
  3024     013B  1903               	skipnz
  3025     013C  293E               	goto	u162_22
  3026     013D  07B6               	addwf	___flmul@prod+2,f
  3027     013E                     u162_22:
  3028     013E  082B               	movf	??___flmul+3,w
  3029     013F  1103               	clrz
  3030     0140  1803               	skipnc
  3031     0141  3E01               	addlw	1
  3032     0142  1903               	skipnz
  3033     0143  2945               	goto	u162_23
  3034     0144  07B7               	addwf	___flmul@prod+3,f
  3035     0145                     u162_23:
  3036     0145                     i1l1499:
  3037     0145  3008               	movlw	8
  3038     0146  00A8               	movwf	??___flmul
  3039     0147                     u163_25:
  3040     0147  1003               	clrc
  3041     0148  0DAE               	rlf	___flmul@grs,f
  3042     0149  0DAF               	rlf	___flmul@grs+1,f
  3043     014A  0DB0               	rlf	___flmul@grs+2,f
  3044     014B  0DB1               	rlf	___flmul@grs+3,f
  3045     014C  0BA8               	decfsz	??___flmul,f
  3046     014D  2947               	goto	u163_25
  3047     014E                     i1l1501:
  3048     014E  0821               	movf	___flmul@b+1,w
  3049     014F  00F0               	movwf	__Umul8_16@multiplicand
  3050     0150  0824               	movf	___flmul@a,w
  3051     0151  120A  158A  26A5  120A  118A  	fcall	__Umul8_16
  3052     0156  0871               	movf	?__Umul8_16+1,w
  3053     0157  1283               	bcf	3,5	;RP0=0, select bank0
  3054     0158  1303               	bcf	3,6	;RP1=0, select bank0
  3055     0159  00B9               	movwf	___flmul@temp+1
  3056     015A  0870               	movf	?__Umul8_16,w
  3057     015B  00B8               	movwf	___flmul@temp
  3058     015C                     i1l1503:
  3059     015C  0838               	movf	___flmul@temp,w
  3060     015D  00A8               	movwf	??___flmul
  3061     015E  0839               	movf	___flmul@temp+1,w
  3062     015F  00A9               	movwf	??___flmul+1
  3063     0160  01AA               	clrf	??___flmul+2
  3064     0161  01AB               	clrf	??___flmul+3
  3065     0162  0828               	movf	??___flmul,w
  3066     0163  07AE               	addwf	___flmul@grs,f
  3067     0164  0829               	movf	??___flmul+1,w
  3068     0165  1103               	clrz
  3069     0166  1803               	skipnc
  3070     0167  3E01               	addlw	1
  3071     0168  1903               	skipnz
  3072     0169  296B               	goto	u164_21
  3073     016A  07AF               	addwf	___flmul@grs+1,f
  3074     016B                     u164_21:
  3075     016B  082A               	movf	??___flmul+2,w
  3076     016C  1103               	clrz
  3077     016D  1803               	skipnc
  3078     016E  3E01               	addlw	1
  3079     016F  1903               	skipnz
  3080     0170  2972               	goto	u164_22
  3081     0171  07B0               	addwf	___flmul@grs+2,f
  3082     0172                     u164_22:
  3083     0172  082B               	movf	??___flmul+3,w
  3084     0173  1103               	clrz
  3085     0174  1803               	skipnc
  3086     0175  3E01               	addlw	1
  3087     0176  1903               	skipnz
  3088     0177  2979               	goto	u164_23
  3089     0178  07B1               	addwf	___flmul@grs+3,f
  3090     0179                     u164_23:
  3091     0179                     i1l1505:
  3092     0179  0820               	movf	___flmul@b,w
  3093     017A  00F0               	movwf	__Umul8_16@multiplicand
  3094     017B  0825               	movf	___flmul@a+1,w
  3095     017C  120A  158A  26A5  120A  118A  	fcall	__Umul8_16
  3096     0181  0871               	movf	?__Umul8_16+1,w
  3097     0182  1283               	bcf	3,5	;RP0=0, select bank0
  3098     0183  1303               	bcf	3,6	;RP1=0, select bank0
  3099     0184  00B9               	movwf	___flmul@temp+1
  3100     0185  0870               	movf	?__Umul8_16,w
  3101     0186  00B8               	movwf	___flmul@temp
  3102     0187                     i1l1507:
  3103     0187  0838               	movf	___flmul@temp,w
  3104     0188  00A8               	movwf	??___flmul
  3105     0189  0839               	movf	___flmul@temp+1,w
  3106     018A  00A9               	movwf	??___flmul+1
  3107     018B  01AA               	clrf	??___flmul+2
  3108     018C  01AB               	clrf	??___flmul+3
  3109     018D  0828               	movf	??___flmul,w
  3110     018E  07AE               	addwf	___flmul@grs,f
  3111     018F  0829               	movf	??___flmul+1,w
  3112     0190  1103               	clrz
  3113     0191  1803               	skipnc
  3114     0192  3E01               	addlw	1
  3115     0193  1903               	skipnz
  3116     0194  2996               	goto	u165_21
  3117     0195  07AF               	addwf	___flmul@grs+1,f
  3118     0196                     u165_21:
  3119     0196  082A               	movf	??___flmul+2,w
  3120     0197  1103               	clrz
  3121     0198  1803               	skipnc
  3122     0199  3E01               	addlw	1
  3123     019A  1903               	skipnz
  3124     019B  299D               	goto	u165_22
  3125     019C  07B0               	addwf	___flmul@grs+2,f
  3126     019D                     u165_22:
  3127     019D  082B               	movf	??___flmul+3,w
  3128     019E  1103               	clrz
  3129     019F  1803               	skipnc
  3130     01A0  3E01               	addlw	1
  3131     01A1  1903               	skipnz
  3132     01A2  29A4               	goto	u165_23
  3133     01A3  07B1               	addwf	___flmul@grs+3,f
  3134     01A4                     u165_23:
  3135     01A4                     i1l1509:
  3136     01A4  3008               	movlw	8
  3137     01A5  00A8               	movwf	??___flmul
  3138     01A6                     u166_25:
  3139     01A6  1003               	clrc
  3140     01A7  0DAE               	rlf	___flmul@grs,f
  3141     01A8  0DAF               	rlf	___flmul@grs+1,f
  3142     01A9  0DB0               	rlf	___flmul@grs+2,f
  3143     01AA  0DB1               	rlf	___flmul@grs+3,f
  3144     01AB  0BA8               	decfsz	??___flmul,f
  3145     01AC  29A6               	goto	u166_25
  3146     01AD  0820               	movf	___flmul@b,w
  3147     01AE  00F0               	movwf	__Umul8_16@multiplicand
  3148     01AF  0824               	movf	___flmul@a,w
  3149     01B0  120A  158A  26A5  120A  118A  	fcall	__Umul8_16
  3150     01B5  0871               	movf	?__Umul8_16+1,w
  3151     01B6  1283               	bcf	3,5	;RP0=0, select bank0
  3152     01B7  1303               	bcf	3,6	;RP1=0, select bank0
  3153     01B8  00B9               	movwf	___flmul@temp+1
  3154     01B9  0870               	movf	?__Umul8_16,w
  3155     01BA  00B8               	movwf	___flmul@temp
  3156     01BB                     i1l1511:
  3157     01BB  0838               	movf	___flmul@temp,w
  3158     01BC  00A8               	movwf	??___flmul
  3159     01BD  0839               	movf	___flmul@temp+1,w
  3160     01BE  00A9               	movwf	??___flmul+1
  3161     01BF  01AA               	clrf	??___flmul+2
  3162     01C0  01AB               	clrf	??___flmul+3
  3163     01C1  0828               	movf	??___flmul,w
  3164     01C2  07AE               	addwf	___flmul@grs,f
  3165     01C3  0829               	movf	??___flmul+1,w
  3166     01C4  1103               	clrz
  3167     01C5  1803               	skipnc
  3168     01C6  3E01               	addlw	1
  3169     01C7  1903               	skipnz
  3170     01C8  29CA               	goto	u167_21
  3171     01C9  07AF               	addwf	___flmul@grs+1,f
  3172     01CA                     u167_21:
  3173     01CA  082A               	movf	??___flmul+2,w
  3174     01CB  1103               	clrz
  3175     01CC  1803               	skipnc
  3176     01CD  3E01               	addlw	1
  3177     01CE  1903               	skipnz
  3178     01CF  29D1               	goto	u167_22
  3179     01D0  07B0               	addwf	___flmul@grs+2,f
  3180     01D1                     u167_22:
  3181     01D1  082B               	movf	??___flmul+3,w
  3182     01D2  1103               	clrz
  3183     01D3  1803               	skipnc
  3184     01D4  3E01               	addlw	1
  3185     01D5  1903               	skipnz
  3186     01D6  29D8               	goto	u167_23
  3187     01D7  07B1               	addwf	___flmul@grs+3,f
  3188     01D8                     u167_23:
  3189     01D8                     i1l1513:
  3190     01D8  0821               	movf	___flmul@b+1,w
  3191     01D9  00F0               	movwf	__Umul8_16@multiplicand
  3192     01DA  0826               	movf	___flmul@a+2,w
  3193     01DB  120A  158A  26A5  120A  118A  	fcall	__Umul8_16
  3194     01E0  0871               	movf	?__Umul8_16+1,w
  3195     01E1  1283               	bcf	3,5	;RP0=0, select bank0
  3196     01E2  1303               	bcf	3,6	;RP1=0, select bank0
  3197     01E3  00B9               	movwf	___flmul@temp+1
  3198     01E4  0870               	movf	?__Umul8_16,w
  3199     01E5  00B8               	movwf	___flmul@temp
  3200     01E6  0838               	movf	___flmul@temp,w
  3201     01E7  00A8               	movwf	??___flmul
  3202     01E8  0839               	movf	___flmul@temp+1,w
  3203     01E9  00A9               	movwf	??___flmul+1
  3204     01EA  01AA               	clrf	??___flmul+2
  3205     01EB  01AB               	clrf	??___flmul+3
  3206     01EC  0828               	movf	??___flmul,w
  3207     01ED  07B4               	addwf	___flmul@prod,f
  3208     01EE  0829               	movf	??___flmul+1,w
  3209     01EF  1103               	clrz
  3210     01F0  1803               	skipnc
  3211     01F1  3E01               	addlw	1
  3212     01F2  1903               	skipnz
  3213     01F3  29F5               	goto	u168_21
  3214     01F4  07B5               	addwf	___flmul@prod+1,f
  3215     01F5                     u168_21:
  3216     01F5  082A               	movf	??___flmul+2,w
  3217     01F6  1103               	clrz
  3218     01F7  1803               	skipnc
  3219     01F8  3E01               	addlw	1
  3220     01F9  1903               	skipnz
  3221     01FA  29FC               	goto	u168_22
  3222     01FB  07B6               	addwf	___flmul@prod+2,f
  3223     01FC                     u168_22:
  3224     01FC  082B               	movf	??___flmul+3,w
  3225     01FD  1103               	clrz
  3226     01FE  1803               	skipnc
  3227     01FF  3E01               	addlw	1
  3228     0200  1903               	skipnz
  3229     0201  2A03               	goto	u168_23
  3230     0202  07B7               	addwf	___flmul@prod+3,f
  3231     0203                     u168_23:
  3232     0203                     i1l1515:
  3233     0203  0822               	movf	___flmul@b+2,w
  3234     0204  00F0               	movwf	__Umul8_16@multiplicand
  3235     0205  0825               	movf	___flmul@a+1,w
  3236     0206  120A  158A  26A5  120A  118A  	fcall	__Umul8_16
  3237     020B  0871               	movf	?__Umul8_16+1,w
  3238     020C  1283               	bcf	3,5	;RP0=0, select bank0
  3239     020D  1303               	bcf	3,6	;RP1=0, select bank0
  3240     020E  00B9               	movwf	___flmul@temp+1
  3241     020F  0870               	movf	?__Umul8_16,w
  3242     0210  00B8               	movwf	___flmul@temp
  3243     0211                     i1l1517:
  3244     0211  0838               	movf	___flmul@temp,w
  3245     0212  00A8               	movwf	??___flmul
  3246     0213  0839               	movf	___flmul@temp+1,w
  3247     0214  00A9               	movwf	??___flmul+1
  3248     0215  01AA               	clrf	??___flmul+2
  3249     0216  01AB               	clrf	??___flmul+3
  3250     0217  0828               	movf	??___flmul,w
  3251     0218  07B4               	addwf	___flmul@prod,f
  3252     0219  0829               	movf	??___flmul+1,w
  3253     021A  1103               	clrz
  3254     021B  1803               	skipnc
  3255     021C  3E01               	addlw	1
  3256     021D  1903               	skipnz
  3257     021E  2A20               	goto	u169_21
  3258     021F  07B5               	addwf	___flmul@prod+1,f
  3259     0220                     u169_21:
  3260     0220  082A               	movf	??___flmul+2,w
  3261     0221  1103               	clrz
  3262     0222  1803               	skipnc
  3263     0223  3E01               	addlw	1
  3264     0224  1903               	skipnz
  3265     0225  2A27               	goto	u169_22
  3266     0226  07B6               	addwf	___flmul@prod+2,f
  3267     0227                     u169_22:
  3268     0227  082B               	movf	??___flmul+3,w
  3269     0228  1103               	clrz
  3270     0229  1803               	skipnc
  3271     022A  3E01               	addlw	1
  3272     022B  1903               	skipnz
  3273     022C  2A2E               	goto	u169_23
  3274     022D  07B7               	addwf	___flmul@prod+3,f
  3275     022E                     u169_23:
  3276     022E  0822               	movf	___flmul@b+2,w
  3277     022F  00F0               	movwf	__Umul8_16@multiplicand
  3278     0230  0826               	movf	___flmul@a+2,w
  3279     0231  120A  158A  26A5  120A  118A  	fcall	__Umul8_16
  3280     0236  0871               	movf	?__Umul8_16+1,w
  3281     0237  1283               	bcf	3,5	;RP0=0, select bank0
  3282     0238  1303               	bcf	3,6	;RP1=0, select bank0
  3283     0239  00B9               	movwf	___flmul@temp+1
  3284     023A  0870               	movf	?__Umul8_16,w
  3285     023B  00B8               	movwf	___flmul@temp
  3286     023C                     i1l1519:
  3287     023C  0838               	movf	___flmul@temp,w
  3288     023D  00A8               	movwf	??___flmul
  3289     023E  0839               	movf	___flmul@temp+1,w
  3290     023F  00A9               	movwf	??___flmul+1
  3291     0240  01AA               	clrf	??___flmul+2
  3292     0241  01AB               	clrf	??___flmul+3
  3293     0242  3008               	movlw	8
  3294     0243                     u170_25:
  3295     0243  1003               	clrc
  3296     0244  0DA8               	rlf	??___flmul,f
  3297     0245  0DA9               	rlf	??___flmul+1,f
  3298     0246  0DAA               	rlf	??___flmul+2,f
  3299     0247  0DAB               	rlf	??___flmul+3,f
  3300     0248                     u170_20:
  3301     0248  3EFF               	addlw	-1
  3302     0249  1D03               	skipz
  3303     024A  2A43               	goto	u170_25
  3304     024B  0828               	movf	??___flmul,w
  3305     024C  07B4               	addwf	___flmul@prod,f
  3306     024D  0829               	movf	??___flmul+1,w
  3307     024E  1103               	clrz
  3308     024F  1803               	skipnc
  3309     0250  3E01               	addlw	1
  3310     0251  1903               	skipnz
  3311     0252  2A54               	goto	u171_21
  3312     0253  07B5               	addwf	___flmul@prod+1,f
  3313     0254                     u171_21:
  3314     0254  082A               	movf	??___flmul+2,w
  3315     0255  1103               	clrz
  3316     0256  1803               	skipnc
  3317     0257  3E01               	addlw	1
  3318     0258  1903               	skipnz
  3319     0259  2A5B               	goto	u171_22
  3320     025A  07B6               	addwf	___flmul@prod+2,f
  3321     025B                     u171_22:
  3322     025B  082B               	movf	??___flmul+3,w
  3323     025C  1103               	clrz
  3324     025D  1803               	skipnc
  3325     025E  3E01               	addlw	1
  3326     025F  1903               	skipnz
  3327     0260  2A62               	goto	u171_23
  3328     0261  07B7               	addwf	___flmul@prod+3,f
  3329     0262                     u171_23:
  3330     0262                     i1l1521:
  3331     0262  082E               	movf	___flmul@grs,w
  3332     0263  00A8               	movwf	??___flmul
  3333     0264  082F               	movf	___flmul@grs+1,w
  3334     0265  00A9               	movwf	??___flmul+1
  3335     0266  0830               	movf	___flmul@grs+2,w
  3336     0267  00AA               	movwf	??___flmul+2
  3337     0268  0831               	movf	___flmul@grs+3,w
  3338     0269  00AB               	movwf	??___flmul+3
  3339     026A  3018               	movlw	24
  3340     026B                     u172_25:
  3341     026B  1003               	clrc
  3342     026C  0CAB               	rrf	??___flmul+3,f
  3343     026D  0CAA               	rrf	??___flmul+2,f
  3344     026E  0CA9               	rrf	??___flmul+1,f
  3345     026F  0CA8               	rrf	??___flmul,f
  3346     0270                     u172_20:
  3347     0270  3EFF               	addlw	-1
  3348     0271  1D03               	skipz
  3349     0272  2A6B               	goto	u172_25
  3350     0273  0828               	movf	??___flmul,w
  3351     0274  07B4               	addwf	___flmul@prod,f
  3352     0275  0829               	movf	??___flmul+1,w
  3353     0276  1103               	clrz
  3354     0277  1803               	skipnc
  3355     0278  3E01               	addlw	1
  3356     0279  1903               	skipnz
  3357     027A  2A7C               	goto	u173_21
  3358     027B  07B5               	addwf	___flmul@prod+1,f
  3359     027C                     u173_21:
  3360     027C  082A               	movf	??___flmul+2,w
  3361     027D  1103               	clrz
  3362     027E  1803               	skipnc
  3363     027F  3E01               	addlw	1
  3364     0280  1903               	skipnz
  3365     0281  2A83               	goto	u173_22
  3366     0282  07B6               	addwf	___flmul@prod+2,f
  3367     0283                     u173_22:
  3368     0283  082B               	movf	??___flmul+3,w
  3369     0284  1103               	clrz
  3370     0285  1803               	skipnc
  3371     0286  3E01               	addlw	1
  3372     0287  1903               	skipnz
  3373     0288  2A8A               	goto	u173_23
  3374     0289  07B7               	addwf	___flmul@prod+3,f
  3375     028A                     u173_23:
  3376     028A                     i1l1523:
  3377     028A  3008               	movlw	8
  3378     028B  00A8               	movwf	??___flmul
  3379     028C                     u174_25:
  3380     028C  1003               	clrc
  3381     028D  0DAE               	rlf	___flmul@grs,f
  3382     028E  0DAF               	rlf	___flmul@grs+1,f
  3383     028F  0DB0               	rlf	___flmul@grs+2,f
  3384     0290  0DB1               	rlf	___flmul@grs+3,f
  3385     0291  0BA8               	decfsz	??___flmul,f
  3386     0292  2A8C               	goto	u174_25
  3387     0293                     i1l1525:
  3388     0293  0833               	movf	___flmul@bexp,w
  3389     0294  0732               	addwf	___flmul@aexp,w
  3390     0295  00A8               	movwf	??___flmul
  3391     0296  01A9               	clrf	??___flmul+1
  3392     0297  0DA9               	rlf	??___flmul+1,f
  3393     0298  0828               	movf	??___flmul,w
  3394     0299  3E82               	addlw	130
  3395     029A  00B8               	movwf	___flmul@temp
  3396     029B  0829               	movf	??___flmul+1,w
  3397     029C  1803               	skipnc
  3398     029D  3E01               	addlw	1
  3399     029E  3EFF               	addlw	255
  3400     029F  00B9               	movwf	___flmul@temp+1
  3401     02A0  2ABE               	goto	i1l1537
  3402     02A1                     i1l1527:
  3403     02A1  3001               	movlw	1
  3404     02A2  00A8               	movwf	??___flmul
  3405     02A3                     u175_25:
  3406     02A3  1003               	clrc
  3407     02A4  0DB4               	rlf	___flmul@prod,f
  3408     02A5  0DB5               	rlf	___flmul@prod+1,f
  3409     02A6  0DB6               	rlf	___flmul@prod+2,f
  3410     02A7  0DB7               	rlf	___flmul@prod+3,f
  3411     02A8  0BA8               	decfsz	??___flmul,f
  3412     02A9  2AA3               	goto	u175_25
  3413     02AA                     i1l1529:
  3414     02AA  1FB1               	btfss	___flmul@grs+3,7
  3415     02AB  2AAD               	goto	u176_21
  3416     02AC  2AAE               	goto	u176_20
  3417     02AD                     u176_21:
  3418     02AD  2AAF               	goto	i1l1533
  3419     02AE                     u176_20:
  3420     02AE                     i1l1531:
  3421     02AE  1434               	bsf	___flmul@prod,0
  3422     02AF                     i1l1533:
  3423     02AF  3001               	movlw	1
  3424     02B0  00A8               	movwf	??___flmul
  3425     02B1                     u177_25:
  3426     02B1  1003               	clrc
  3427     02B2  0DAE               	rlf	___flmul@grs,f
  3428     02B3  0DAF               	rlf	___flmul@grs+1,f
  3429     02B4  0DB0               	rlf	___flmul@grs+2,f
  3430     02B5  0DB1               	rlf	___flmul@grs+3,f
  3431     02B6  0BA8               	decfsz	??___flmul,f
  3432     02B7  2AB1               	goto	u177_25
  3433     02B8                     i1l1535:
  3434     02B8  30FF               	movlw	255
  3435     02B9  07B8               	addwf	___flmul@temp,f
  3436     02BA  1803               	skipnc
  3437     02BB  0AB9               	incf	___flmul@temp+1,f
  3438     02BC  30FF               	movlw	255
  3439     02BD  07B9               	addwf	___flmul@temp+1,f
  3440     02BE                     i1l1537:
  3441     02BE  1FB6               	btfss	___flmul@prod+2,7
  3442     02BF  2AC1               	goto	u178_21
  3443     02C0  2AC2               	goto	u178_20
  3444     02C1                     u178_21:
  3445     02C1  2AA1               	goto	i1l1527
  3446     02C2                     u178_20:
  3447     02C2                     i1l1539:
  3448     02C2  01B2               	clrf	___flmul@aexp
  3449     02C3                     i1l1541:
  3450     02C3  1FB1               	btfss	___flmul@grs+3,7
  3451     02C4  2AC6               	goto	u179_21
  3452     02C5  2AC7               	goto	u179_20
  3453     02C6                     u179_21:
  3454     02C6  2AE3               	goto	i1l1549
  3455     02C7                     u179_20:
  3456     02C7                     i1l1543:
  3457     02C7  30FF               	movlw	255
  3458     02C8  052E               	andwf	___flmul@grs,w
  3459     02C9  00A8               	movwf	??___flmul
  3460     02CA  30FF               	movlw	255
  3461     02CB  052F               	andwf	___flmul@grs+1,w
  3462     02CC  00A9               	movwf	??___flmul+1
  3463     02CD  30FF               	movlw	255
  3464     02CE  0530               	andwf	___flmul@grs+2,w
  3465     02CF  00AA               	movwf	??___flmul+2
  3466     02D0  307F               	movlw	127
  3467     02D1  0531               	andwf	___flmul@grs+3,w
  3468     02D2  00AB               	movwf	??___flmul+3
  3469     02D3  082B               	movf	??___flmul+3,w
  3470     02D4  042A               	iorwf	??___flmul+2,w
  3471     02D5  0429               	iorwf	??___flmul+1,w
  3472     02D6  0428               	iorwf	??___flmul,w
  3473     02D7  1903               	skipnz
  3474     02D8  2ADA               	goto	u180_21
  3475     02D9  2ADB               	goto	u180_20
  3476     02DA                     u180_21:
  3477     02DA  2ADE               	goto	i1l622
  3478     02DB                     u180_20:
  3479     02DB                     i1l1545:
  3480     02DB  01B2               	clrf	___flmul@aexp
  3481     02DC  0AB2               	incf	___flmul@aexp,f
  3482     02DD  2AE3               	goto	i1l1549
  3483     02DE                     i1l622:
  3484     02DE  1C34               	btfss	___flmul@prod,0
  3485     02DF  2AE1               	goto	u181_21
  3486     02E0  2AE2               	goto	u181_20
  3487     02E1                     u181_21:
  3488     02E1  2AE3               	goto	i1l1549
  3489     02E2                     u181_20:
  3490     02E2  2ADB               	goto	i1l1545
  3491     02E3                     i1l1549:
  3492     02E3  0832               	movf	___flmul@aexp,w
  3493     02E4  1903               	btfsc	3,2
  3494     02E5  2AE7               	goto	u182_21
  3495     02E6  2AE8               	goto	u182_20
  3496     02E7                     u182_21:
  3497     02E7  2B19               	goto	i1l1559
  3498     02E8                     u182_20:
  3499     02E8                     i1l1551:
  3500     02E8  3001               	movlw	1
  3501     02E9  07B4               	addwf	___flmul@prod,f
  3502     02EA  3000               	movlw	0
  3503     02EB  1803               	skipnc
  3504     02EC  3001               	movlw	1
  3505     02ED  07B5               	addwf	___flmul@prod+1,f
  3506     02EE  3000               	movlw	0
  3507     02EF  1803               	skipnc
  3508     02F0  3001               	movlw	1
  3509     02F1  07B6               	addwf	___flmul@prod+2,f
  3510     02F2  3000               	movlw	0
  3511     02F3  1803               	skipnc
  3512     02F4  3001               	movlw	1
  3513     02F5  07B7               	addwf	___flmul@prod+3,f
  3514     02F6                     i1l1553:
  3515     02F6  1C37               	btfss	___flmul@prod+3,0
  3516     02F7  2AF9               	goto	u183_21
  3517     02F8  2AFA               	goto	u183_20
  3518     02F9                     u183_21:
  3519     02F9  2B19               	goto	i1l1559
  3520     02FA                     u183_20:
  3521     02FA                     i1l1555:
  3522     02FA  0834               	movf	___flmul@prod,w
  3523     02FB  00A8               	movwf	??___flmul
  3524     02FC  0835               	movf	___flmul@prod+1,w
  3525     02FD  00A9               	movwf	??___flmul+1
  3526     02FE  0836               	movf	___flmul@prod+2,w
  3527     02FF  00AA               	movwf	??___flmul+2
  3528     0300  0837               	movf	___flmul@prod+3,w
  3529     0301  00AB               	movwf	??___flmul+3
  3530     0302  3001               	movlw	1
  3531     0303  00AC               	movwf	??___flmul+4
  3532     0304                     u184_25:
  3533     0304  0D2B               	rlf	??___flmul+3,w
  3534     0305  0CAB               	rrf	??___flmul+3,f
  3535     0306  0CAA               	rrf	??___flmul+2,f
  3536     0307  0CA9               	rrf	??___flmul+1,f
  3537     0308  0CA8               	rrf	??___flmul,f
  3538     0309                     u184_20:
  3539     0309  0BAC               	decfsz	??___flmul+4,f
  3540     030A  2B04               	goto	u184_25
  3541     030B  082B               	movf	??___flmul+3,w
  3542     030C  00B7               	movwf	___flmul@prod+3
  3543     030D  082A               	movf	??___flmul+2,w
  3544     030E  00B6               	movwf	___flmul@prod+2
  3545     030F  0829               	movf	??___flmul+1,w
  3546     0310  00B5               	movwf	___flmul@prod+1
  3547     0311  0828               	movf	??___flmul,w
  3548     0312  00B4               	movwf	___flmul@prod
  3549     0313                     i1l1557:
  3550     0313  3001               	movlw	1
  3551     0314  07B8               	addwf	___flmul@temp,f
  3552     0315  1803               	skipnc
  3553     0316  0AB9               	incf	___flmul@temp+1,f
  3554     0317  3000               	movlw	0
  3555     0318  07B9               	addwf	___flmul@temp+1,f
  3556     0319                     i1l1559:
  3557     0319  0839               	movf	___flmul@temp+1,w
  3558     031A  3A80               	xorlw	128
  3559     031B  00FF               	movwf	btemp+1
  3560     031C  3080               	movlw	128
  3561     031D  027F               	subwf	btemp+1,w
  3562     031E  1D03               	skipz
  3563     031F  2B22               	goto	u185_25
  3564     0320  30FF               	movlw	255
  3565     0321  0238               	subwf	___flmul@temp,w
  3566     0322                     u185_25:
  3567     0322  1C03               	skipc
  3568     0323  2B25               	goto	u185_21
  3569     0324  2B26               	goto	u185_20
  3570     0325                     u185_21:
  3571     0325  2B31               	goto	i1l1563
  3572     0326                     u185_20:
  3573     0326                     i1l1561:
  3574     0326  307F               	movlw	127
  3575     0327  1283               	bcf	3,5	;RP0=0, select bank0
  3576     0328  1303               	bcf	3,6	;RP1=0, select bank0
  3577     0329  00B7               	movwf	___flmul@prod+3
  3578     032A  3080               	movlw	128
  3579     032B  00B6               	movwf	___flmul@prod+2
  3580     032C  3000               	movlw	0
  3581     032D  00B5               	movwf	___flmul@prod+1
  3582     032E  3000               	movlw	0
  3583     032F  00B4               	movwf	___flmul@prod
  3584     0330  2B62               	goto	i1l1577
  3585     0331                     i1l1563:
  3586     0331  1283               	bcf	3,5	;RP0=0, select bank0
  3587     0332  1303               	bcf	3,6	;RP1=0, select bank0
  3588     0333  0839               	movf	___flmul@temp+1,w
  3589     0334  3A80               	xorlw	128
  3590     0335  00FF               	movwf	btemp+1
  3591     0336  3080               	movlw	128
  3592     0337  027F               	subwf	btemp+1,w
  3593     0338  1D03               	skipz
  3594     0339  2B3C               	goto	u186_25
  3595     033A  3001               	movlw	1
  3596     033B  0238               	subwf	___flmul@temp,w
  3597     033C                     u186_25:
  3598     033C  1803               	skipnc
  3599     033D  2B3F               	goto	u186_21
  3600     033E  2B40               	goto	u186_20
  3601     033F                     u186_21:
  3602     033F  2B4C               	goto	i1l1569
  3603     0340                     u186_20:
  3604     0340                     i1l1565:
  3605     0340  3000               	movlw	0
  3606     0341  1283               	bcf	3,5	;RP0=0, select bank0
  3607     0342  1303               	bcf	3,6	;RP1=0, select bank0
  3608     0343  00B7               	movwf	___flmul@prod+3
  3609     0344  3000               	movlw	0
  3610     0345  00B6               	movwf	___flmul@prod+2
  3611     0346  3000               	movlw	0
  3612     0347  00B5               	movwf	___flmul@prod+1
  3613     0348  3000               	movlw	0
  3614     0349  00B4               	movwf	___flmul@prod
  3615     034A                     i1l1567:
  3616     034A  01AD               	clrf	___flmul@sign
  3617     034B  2B62               	goto	i1l1577
  3618     034C                     i1l1569:
  3619     034C  1283               	bcf	3,5	;RP0=0, select bank0
  3620     034D  1303               	bcf	3,6	;RP1=0, select bank0
  3621     034E  0838               	movf	___flmul@temp,w
  3622     034F  00B3               	movwf	___flmul@bexp
  3623     0350  30FF               	movlw	255
  3624     0351  05B4               	andwf	___flmul@prod,f
  3625     0352  30FF               	movlw	255
  3626     0353  05B5               	andwf	___flmul@prod+1,f
  3627     0354  307F               	movlw	127
  3628     0355  05B6               	andwf	___flmul@prod+2,f
  3629     0356  3000               	movlw	0
  3630     0357  05B7               	andwf	___flmul@prod+3,f
  3631     0358                     i1l1571:
  3632     0358  1C33               	btfss	___flmul@bexp,0
  3633     0359  2B5B               	goto	u187_21
  3634     035A  2B5C               	goto	u187_20
  3635     035B                     u187_21:
  3636     035B  2B5D               	goto	i1l1575
  3637     035C                     u187_20:
  3638     035C                     i1l1573:
  3639     035C  17B6               	bsf	___flmul@prod+2,7
  3640     035D                     i1l1575:
  3641     035D  0833               	movf	___flmul@bexp,w
  3642     035E  00A8               	movwf	??___flmul
  3643     035F  1003               	clrc
  3644     0360  0C28               	rrf	??___flmul,w
  3645     0361  00B7               	movwf	___flmul@prod+3
  3646     0362                     i1l1577:
  3647     0362  082D               	movf	___flmul@sign,w
  3648     0363  00FF               	movwf	btemp+1
  3649     0364  087F               	movf	btemp+1,w
  3650     0365  04B7               	iorwf	___flmul@prod+3,f
  3651     0366                     i1l1579:
  3652     0366  0837               	movf	___flmul@prod+3,w
  3653     0367  00A3               	movwf	?___flmul+3
  3654     0368  0836               	movf	___flmul@prod+2,w
  3655     0369  00A2               	movwf	?___flmul+2
  3656     036A  0835               	movf	___flmul@prod+1,w
  3657     036B  00A1               	movwf	?___flmul+1
  3658     036C  0834               	movf	___flmul@prod,w
  3659     036D  00A0               	movwf	?___flmul
  3660     036E                     i1l616:
  3661     036E  0008               	return
  3662     036F                     __end_of___flmul:
  3663                           
  3664                           	psect	text18
  3665     0EA5                     __ptext18:	
  3666 ;; *************** function __Umul8_16 *****************
  3667 ;; Defined at:
  3668 ;;		line 4 in file "C:\Program Files\Microchip\xc8\v2.46\pic\sources\c99\common\Umul8_16.c"
  3669 ;; Parameters:    Size  Location     Type
  3670 ;;  multiplier      1    wreg     unsigned char 
  3671 ;;  multiplicand    1    0[COMMON] unsigned char 
  3672 ;; Auto vars:     Size  Location     Type
  3673 ;;  multiplier      1    8[COMMON] unsigned char 
  3674 ;;  word_mpld       2    6[COMMON] unsigned short 
  3675 ;;  product         2    4[COMMON] unsigned short 
  3676 ;; Return value:  Size  Location     Type
  3677 ;;                  2    0[COMMON] unsigned int 
  3678 ;; Registers used:
  3679 ;;		wreg, status,2, status,0
  3680 ;; Tracked objects:
  3681 ;;		On entry : 0/0
  3682 ;;		On exit  : 0/0
  3683 ;;		Unchanged: 0/0
  3684 ;; Data sizes:     COMMON   BANK0   BANK1   BANK3   BANK2
  3685 ;;      Params:         2       0       0       0       0
  3686 ;;      Locals:         5       0       0       0       0
  3687 ;;      Temps:          2       0       0       0       0
  3688 ;;      Totals:         9       0       0       0       0
  3689 ;;Total ram usage:        9 bytes
  3690 ;; Hardware stack levels used: 1
  3691 ;; This function calls:
  3692 ;;		Nothing
  3693 ;; This function is called by:
  3694 ;;		___flmul
  3695 ;; This function uses a non-reentrant model
  3696 ;;
  3697                           
  3698     0EA5                     __Umul8_16:	
  3699                           ;psect for function __Umul8_16
  3700                           
  3701                           
  3702                           ;incstack = 0
  3703                           ; Regs used in __Umul8_16: [wreg+status,2+status,0]
  3704                           ;__Umul8_16@multiplier stored from wreg
  3705     0EA5  00F8               	movwf	__Umul8_16@multiplier
  3706     0EA6                     i1l1319:
  3707     0EA6  01F4               	clrf	__Umul8_16@product
  3708     0EA7  01F5               	clrf	__Umul8_16@product+1
  3709     0EA8                     i1l1321:
  3710     0EA8  0870               	movf	__Umul8_16@multiplicand,w
  3711     0EA9  00F2               	movwf	??__Umul8_16
  3712     0EAA  01F3               	clrf	??__Umul8_16+1
  3713     0EAB  0872               	movf	??__Umul8_16,w
  3714     0EAC  00F6               	movwf	__Umul8_16@word_mpld
  3715     0EAD  0873               	movf	??__Umul8_16+1,w
  3716     0EAE  00F7               	movwf	__Umul8_16@word_mpld+1
  3717     0EAF                     i1l1323:
  3718     0EAF  1C78               	btfss	__Umul8_16@multiplier,0
  3719     0EB0  2EB2               	goto	u121_21
  3720     0EB1  2EB3               	goto	u121_20
  3721     0EB2                     u121_21:
  3722     0EB2  2EB9               	goto	i1l635
  3723     0EB3                     u121_20:
  3724     0EB3                     i1l1325:
  3725     0EB3  0876               	movf	__Umul8_16@word_mpld,w
  3726     0EB4  07F4               	addwf	__Umul8_16@product,f
  3727     0EB5  1803               	skipnc
  3728     0EB6  0AF5               	incf	__Umul8_16@product+1,f
  3729     0EB7  0877               	movf	__Umul8_16@word_mpld+1,w
  3730     0EB8  07F5               	addwf	__Umul8_16@product+1,f
  3731     0EB9                     i1l635:
  3732     0EB9  3001               	movlw	1
  3733     0EBA                     u122_25:
  3734     0EBA  1003               	clrc
  3735     0EBB  0DF6               	rlf	__Umul8_16@word_mpld,f
  3736     0EBC  0DF7               	rlf	__Umul8_16@word_mpld+1,f
  3737     0EBD  3EFF               	addlw	-1
  3738     0EBE  1D03               	skipz
  3739     0EBF  2EBA               	goto	u122_25
  3740     0EC0  1003               	clrc
  3741     0EC1  0CF8               	rrf	__Umul8_16@multiplier,f
  3742     0EC2                     i1l1327:
  3743     0EC2  0878               	movf	__Umul8_16@multiplier,w
  3744     0EC3  1D03               	btfss	3,2
  3745     0EC4  2EC6               	goto	u123_21
  3746     0EC5  2EC7               	goto	u123_20
  3747     0EC6                     u123_21:
  3748     0EC6  2EAF               	goto	i1l1323
  3749     0EC7                     u123_20:
  3750     0EC7                     i1l1329:
  3751     0EC7  0875               	movf	__Umul8_16@product+1,w
  3752     0EC8  00F1               	movwf	?__Umul8_16+1
  3753     0EC9  0874               	movf	__Umul8_16@product,w
  3754     0ECA  00F0               	movwf	?__Umul8_16
  3755     0ECB                     i1l637:
  3756     0ECB  0008               	return
  3757     0ECC                     __end_of__Umul8_16:
  3758                           
  3759                           	psect	text19
  3760     0DAE                     __ptext19:	
  3761 ;; *************** function _adc_read *****************
  3762 ;; Defined at:
  3763 ;;		line 119 in file "main.c"
  3764 ;; Parameters:    Size  Location     Type
  3765 ;;		None
  3766 ;; Auto vars:     Size  Location     Type
  3767 ;;		None
  3768 ;; Return value:  Size  Location     Type
  3769 ;;                  2    0[COMMON] int 
  3770 ;; Registers used:
  3771 ;;		wreg, status,2, status,0, btemp+1
  3772 ;; Tracked objects:
  3773 ;;		On entry : 0/0
  3774 ;;		On exit  : 0/0
  3775 ;;		Unchanged: 0/0
  3776 ;; Data sizes:     COMMON   BANK0   BANK1   BANK3   BANK2
  3777 ;;      Params:         2       0       0       0       0
  3778 ;;      Locals:         0       0       0       0       0
  3779 ;;      Temps:          0       0       0       0       0
  3780 ;;      Totals:         2       0       0       0       0
  3781 ;;Total ram usage:        2 bytes
  3782 ;; Hardware stack levels used: 1
  3783 ;; This function calls:
  3784 ;;		Nothing
  3785 ;; This function is called by:
  3786 ;;		_isr
  3787 ;; This function uses a non-reentrant model
  3788 ;;
  3789                           
  3790     0DAE                     _adc_read:	
  3791                           ;psect for function _adc_read
  3792                           
  3793     0DAE                     i1l1623:	
  3794                           ;incstack = 0
  3795                           ; Regs used in _adc_read: [wreg+status,2+status,0+btemp+1]
  3796                           
  3797                           
  3798                           ;main.c: 121:     ADCON0 &= 0xC5;
  3799     0DAE  30C5               	movlw	197
  3800     0DAF  00FF               	movwf	btemp+1
  3801     0DB0  087F               	movf	btemp+1,w
  3802     0DB1  1283               	bcf	3,5	;RP0=0, select bank0
  3803     0DB2  1303               	bcf	3,6	;RP1=0, select bank0
  3804     0DB3  059F               	andwf	31,f	;volatile
  3805                           
  3806                           ;main.c: 122:     ADCON0 |= (3 << 3);
  3807     0DB4  3018               	movlw	24
  3808     0DB5  00FF               	movwf	btemp+1
  3809     0DB6  087F               	movf	btemp+1,w
  3810     0DB7  049F               	iorwf	31,f	;volatile
  3811     0DB8                     i1l1625:
  3812                           
  3813                           ;main.c: 123:     ADCON0bits.GO_nDONE = 1;
  3814     0DB8  151F               	bsf	31,2	;volatile
  3815     0DB9                     i1l96:	
  3816                           ;main.c: 124:     while (ADCON0bits.GO_nDONE);
  3817                           
  3818     0DB9  191F               	btfsc	31,2	;volatile
  3819     0DBA  2DBC               	goto	u191_21
  3820     0DBB  2DBD               	goto	u191_20
  3821     0DBC                     u191_21:
  3822     0DBC  2DB9               	goto	i1l96
  3823     0DBD                     u191_20:
  3824     0DBD                     i1l1627:
  3825                           
  3826                           ;main.c: 125:     return ((ADRESH << 8) + ADRESL);
  3827     0DBD  081E               	movf	30,w	;volatile
  3828     0DBE  00F1               	movwf	?_adc_read+1
  3829     0DBF  1683               	bsf	3,5	;RP0=1, select bank1
  3830     0DC0  1303               	bcf	3,6	;RP1=0, select bank1
  3831     0DC1  081E               	movf	30,w	;volatile
  3832     0DC2  00F0               	movwf	?_adc_read
  3833     0DC3                     i1l99:
  3834     0DC3  0008               	return
  3835     0DC4                     __end_of_adc_read:
  3836                           
  3837                           	psect	text20
  3838     053E                     __ptext20:	
  3839 ;; *************** function ___xxtofl *****************
  3840 ;; Defined at:
  3841 ;;		line 10 in file "C:\Program Files\Microchip\xc8\v2.46\pic\sources\c99\common\xxtofl.c"
  3842 ;; Parameters:    Size  Location     Type
  3843 ;;  sign            1    wreg     unsigned char 
  3844 ;;  val             4    0[COMMON] long 
  3845 ;; Auto vars:     Size  Location     Type
  3846 ;;  sign            1    8[COMMON] unsigned char 
  3847 ;;  arg             4   10[COMMON] unsigned long 
  3848 ;;  exp             1    9[COMMON] unsigned char 
  3849 ;; Return value:  Size  Location     Type
  3850 ;;                  4    0[COMMON] unsigned char 
  3851 ;; Registers used:
  3852 ;;		wreg, status,2, status,0, btemp+1
  3853 ;; Tracked objects:
  3854 ;;		On entry : 0/0
  3855 ;;		On exit  : 0/0
  3856 ;;		Unchanged: 0/0
  3857 ;; Data sizes:     COMMON   BANK0   BANK1   BANK3   BANK2
  3858 ;;      Params:         4       0       0       0       0
  3859 ;;      Locals:         6       0       0       0       0
  3860 ;;      Temps:          4       0       0       0       0
  3861 ;;      Totals:        14       0       0       0       0
  3862 ;;Total ram usage:       14 bytes
  3863 ;; Hardware stack levels used: 1
  3864 ;; This function calls:
  3865 ;;		Nothing
  3866 ;; This function is called by:
  3867 ;;		_isr
  3868 ;; This function uses a non-reentrant model
  3869 ;;
  3870                           
  3871     053E                     ___xxtofl:	
  3872                           ;psect for function ___xxtofl
  3873                           
  3874                           
  3875                           ;incstack = 0
  3876                           ; Regs used in ___xxtofl: [wreg+status,2+status,0+btemp+1]
  3877                           ;___xxtofl@sign stored from wreg
  3878     053E  00F8               	movwf	___xxtofl@sign
  3879     053F                     i1l1819:
  3880     053F  0878               	movf	___xxtofl@sign,w
  3881     0540  1903               	btfsc	3,2
  3882     0541  2D43               	goto	u222_21
  3883     0542  2D44               	goto	u222_20
  3884     0543                     u222_21:
  3885     0543  2D58               	goto	i1l1825
  3886     0544                     u222_20:
  3887     0544                     i1l1821:
  3888     0544  1FF3               	btfss	___xxtofl@val+3,7
  3889     0545  2D47               	goto	u223_21
  3890     0546  2D48               	goto	u223_20
  3891     0547                     u223_21:
  3892     0547  2D58               	goto	i1l1825
  3893     0548                     u223_20:
  3894     0548                     i1l1823:
  3895     0548  0970               	comf	___xxtofl@val,w
  3896     0549  00FA               	movwf	___xxtofl@arg
  3897     054A  0971               	comf	___xxtofl@val+1,w
  3898     054B  00FB               	movwf	___xxtofl@arg+1
  3899     054C  0972               	comf	___xxtofl@val+2,w
  3900     054D  00FC               	movwf	___xxtofl@arg+2
  3901     054E  0973               	comf	___xxtofl@val+3,w
  3902     054F  00FD               	movwf	___xxtofl@arg+3
  3903     0550  0AFA               	incf	___xxtofl@arg,f
  3904     0551  1903               	skipnz
  3905     0552  0AFB               	incf	___xxtofl@arg+1,f
  3906     0553  1903               	skipnz
  3907     0554  0AFC               	incf	___xxtofl@arg+2,f
  3908     0555  1903               	skipnz
  3909     0556  0AFD               	incf	___xxtofl@arg+3,f
  3910     0557  2D60               	goto	i1l660
  3911     0558                     i1l1825:
  3912     0558  0873               	movf	___xxtofl@val+3,w
  3913     0559  00FD               	movwf	___xxtofl@arg+3
  3914     055A  0872               	movf	___xxtofl@val+2,w
  3915     055B  00FC               	movwf	___xxtofl@arg+2
  3916     055C  0871               	movf	___xxtofl@val+1,w
  3917     055D  00FB               	movwf	___xxtofl@arg+1
  3918     055E  0870               	movf	___xxtofl@val,w
  3919     055F  00FA               	movwf	___xxtofl@arg
  3920     0560                     i1l660:
  3921     0560  0873               	movf	___xxtofl@val+3,w
  3922     0561  0472               	iorwf	___xxtofl@val+2,w
  3923     0562  0471               	iorwf	___xxtofl@val+1,w
  3924     0563  0470               	iorwf	___xxtofl@val,w
  3925     0564  1D03               	skipz
  3926     0565  2D67               	goto	u224_21
  3927     0566  2D68               	goto	u224_20
  3928     0567                     u224_21:
  3929     0567  2D71               	goto	i1l1831
  3930     0568                     u224_20:
  3931     0568                     i1l1827:
  3932     0568  3000               	movlw	0
  3933     0569  00F3               	movwf	?___xxtofl+3
  3934     056A  3000               	movlw	0
  3935     056B  00F2               	movwf	?___xxtofl+2
  3936     056C  3000               	movlw	0
  3937     056D  00F1               	movwf	?___xxtofl+1
  3938     056E  3000               	movlw	0
  3939     056F  00F0               	movwf	?___xxtofl
  3940     0570  2DF5               	goto	i1l662
  3941     0571                     i1l1831:
  3942     0571  3096               	movlw	150
  3943     0572  00F9               	movwf	___xxtofl@exp
  3944     0573  2D81               	goto	i1l1837
  3945     0574                     i1l1833:
  3946     0574  3001               	movlw	1
  3947     0575  00FF               	movwf	btemp+1
  3948     0576  087F               	movf	btemp+1,w
  3949     0577  07F9               	addwf	___xxtofl@exp,f
  3950     0578                     i1l1835:
  3951     0578  3001               	movlw	1
  3952     0579                     u225_25:
  3953     0579  1003               	clrc
  3954     057A  0CFD               	rrf	___xxtofl@arg+3,f
  3955     057B  0CFC               	rrf	___xxtofl@arg+2,f
  3956     057C  0CFB               	rrf	___xxtofl@arg+1,f
  3957     057D  0CFA               	rrf	___xxtofl@arg,f
  3958     057E  3EFF               	addlw	-1
  3959     057F  1D03               	skipz
  3960     0580  2D79               	goto	u225_25
  3961     0581                     i1l1837:
  3962     0581  30FE               	movlw	254
  3963     0582  057D               	andwf	___xxtofl@arg+3,w
  3964     0583  1D03               	btfss	3,2
  3965     0584  2D86               	goto	u226_21
  3966     0585  2D87               	goto	u226_20
  3967     0586                     u226_21:
  3968     0586  2D74               	goto	i1l1833
  3969     0587                     u226_20:
  3970     0587  2DA3               	goto	i1l1845
  3971     0588                     i1l1839:
  3972     0588  3001               	movlw	1
  3973     0589  00FF               	movwf	btemp+1
  3974     058A  087F               	movf	btemp+1,w
  3975     058B  07F9               	addwf	___xxtofl@exp,f
  3976     058C                     i1l1841:
  3977     058C  3001               	movlw	1
  3978     058D  07FA               	addwf	___xxtofl@arg,f
  3979     058E  3000               	movlw	0
  3980     058F  1803               	skipnc
  3981     0590  3001               	movlw	1
  3982     0591  07FB               	addwf	___xxtofl@arg+1,f
  3983     0592  3000               	movlw	0
  3984     0593  1803               	skipnc
  3985     0594  3001               	movlw	1
  3986     0595  07FC               	addwf	___xxtofl@arg+2,f
  3987     0596  3000               	movlw	0
  3988     0597  1803               	skipnc
  3989     0598  3001               	movlw	1
  3990     0599  07FD               	addwf	___xxtofl@arg+3,f
  3991     059A                     i1l1843:
  3992     059A  3001               	movlw	1
  3993     059B                     u227_25:
  3994     059B  1003               	clrc
  3995     059C  0CFD               	rrf	___xxtofl@arg+3,f
  3996     059D  0CFC               	rrf	___xxtofl@arg+2,f
  3997     059E  0CFB               	rrf	___xxtofl@arg+1,f
  3998     059F  0CFA               	rrf	___xxtofl@arg,f
  3999     05A0  3EFF               	addlw	-1
  4000     05A1  1D03               	skipz
  4001     05A2  2D9B               	goto	u227_25
  4002     05A3                     i1l1845:
  4003     05A3  30FF               	movlw	255
  4004     05A4  057D               	andwf	___xxtofl@arg+3,w
  4005     05A5  1D03               	btfss	3,2
  4006     05A6  2DA8               	goto	u228_21
  4007     05A7  2DA9               	goto	u228_20
  4008     05A8                     u228_21:
  4009     05A8  2D88               	goto	i1l1839
  4010     05A9                     u228_20:
  4011     05A9  2DB5               	goto	i1l1849
  4012     05AA                     i1l1847:
  4013     05AA  3001               	movlw	1
  4014     05AB  02F9               	subwf	___xxtofl@exp,f
  4015     05AC  3001               	movlw	1
  4016     05AD  00F4               	movwf	??___xxtofl
  4017     05AE                     u229_25:
  4018     05AE  1003               	clrc
  4019     05AF  0DFA               	rlf	___xxtofl@arg,f
  4020     05B0  0DFB               	rlf	___xxtofl@arg+1,f
  4021     05B1  0DFC               	rlf	___xxtofl@arg+2,f
  4022     05B2  0DFD               	rlf	___xxtofl@arg+3,f
  4023     05B3  0BF4               	decfsz	??___xxtofl,f
  4024     05B4  2DAE               	goto	u229_25
  4025     05B5                     i1l1849:
  4026     05B5  1BFC               	btfsc	___xxtofl@arg+2,7
  4027     05B6  2DB8               	goto	u230_21
  4028     05B7  2DB9               	goto	u230_20
  4029     05B8                     u230_21:
  4030     05B8  2DBF               	goto	i1l673
  4031     05B9                     u230_20:
  4032     05B9                     i1l1851:
  4033     05B9  3002               	movlw	2
  4034     05BA  0279               	subwf	___xxtofl@exp,w
  4035     05BB  1803               	skipnc
  4036     05BC  2DBE               	goto	u231_21
  4037     05BD  2DBF               	goto	u231_20
  4038     05BE                     u231_21:
  4039     05BE  2DAA               	goto	i1l1847
  4040     05BF                     u231_20:
  4041     05BF                     i1l673:
  4042     05BF  1879               	btfsc	___xxtofl@exp,0
  4043     05C0  2DC2               	goto	u232_21
  4044     05C1  2DC3               	goto	u232_20
  4045     05C2                     u232_21:
  4046     05C2  2DCB               	goto	i1l674
  4047     05C3                     u232_20:
  4048     05C3                     i1l1853:
  4049     05C3  30FF               	movlw	255
  4050     05C4  05FA               	andwf	___xxtofl@arg,f
  4051     05C5  30FF               	movlw	255
  4052     05C6  05FB               	andwf	___xxtofl@arg+1,f
  4053     05C7  307F               	movlw	127
  4054     05C8  05FC               	andwf	___xxtofl@arg+2,f
  4055     05C9  30FF               	movlw	255
  4056     05CA  05FD               	andwf	___xxtofl@arg+3,f
  4057     05CB                     i1l674:
  4058     05CB  1003               	clrc
  4059     05CC  0CF9               	rrf	___xxtofl@exp,f
  4060     05CD                     i1l1855:
  4061     05CD  0879               	movf	___xxtofl@exp,w
  4062     05CE  00F4               	movwf	??___xxtofl
  4063     05CF  01F5               	clrf	??___xxtofl+1
  4064     05D0  01F6               	clrf	??___xxtofl+2
  4065     05D1  01F7               	clrf	??___xxtofl+3
  4066     05D2  3018               	movlw	24
  4067     05D3                     u233_25:
  4068     05D3  1003               	clrc
  4069     05D4  0DF4               	rlf	??___xxtofl,f
  4070     05D5  0DF5               	rlf	??___xxtofl+1,f
  4071     05D6  0DF6               	rlf	??___xxtofl+2,f
  4072     05D7  0DF7               	rlf	??___xxtofl+3,f
  4073     05D8                     u233_20:
  4074     05D8  3EFF               	addlw	-1
  4075     05D9  1D03               	skipz
  4076     05DA  2DD3               	goto	u233_25
  4077     05DB  0874               	movf	??___xxtofl,w
  4078     05DC  04FA               	iorwf	___xxtofl@arg,f
  4079     05DD  0875               	movf	??___xxtofl+1,w
  4080     05DE  04FB               	iorwf	___xxtofl@arg+1,f
  4081     05DF  0876               	movf	??___xxtofl+2,w
  4082     05E0  04FC               	iorwf	___xxtofl@arg+2,f
  4083     05E1  0877               	movf	??___xxtofl+3,w
  4084     05E2  04FD               	iorwf	___xxtofl@arg+3,f
  4085     05E3                     i1l1857:
  4086     05E3  0878               	movf	___xxtofl@sign,w
  4087     05E4  1903               	btfsc	3,2
  4088     05E5  2DE7               	goto	u234_21
  4089     05E6  2DE8               	goto	u234_20
  4090     05E7                     u234_21:
  4091     05E7  2DED               	goto	i1l1863
  4092     05E8                     u234_20:
  4093     05E8                     i1l1859:
  4094     05E8  1FF3               	btfss	___xxtofl@val+3,7
  4095     05E9  2DEB               	goto	u235_21
  4096     05EA  2DEC               	goto	u235_20
  4097     05EB                     u235_21:
  4098     05EB  2DED               	goto	i1l1863
  4099     05EC                     u235_20:
  4100     05EC                     i1l1861:
  4101     05EC  17FD               	bsf	___xxtofl@arg+3,7
  4102     05ED                     i1l1863:
  4103     05ED  087D               	movf	___xxtofl@arg+3,w
  4104     05EE  00F3               	movwf	?___xxtofl+3
  4105     05EF  087C               	movf	___xxtofl@arg+2,w
  4106     05F0  00F2               	movwf	?___xxtofl+2
  4107     05F1  087B               	movf	___xxtofl@arg+1,w
  4108     05F2  00F1               	movwf	?___xxtofl+1
  4109     05F3  087A               	movf	___xxtofl@arg,w
  4110     05F4  00F0               	movwf	?___xxtofl
  4111     05F5                     i1l662:
  4112     05F5  0008               	return
  4113     05F6                     __end_of___xxtofl:
  4114                           
  4115                           	psect	text21
  4116     036F                     __ptext21:	
  4117 ;; *************** function ___fldiv *****************
  4118 ;; Defined at:
  4119 ;;		line 8 in file "C:\Program Files\Microchip\xc8\v2.46\pic\sources\c99\common\sprcdiv.c"
  4120 ;; Parameters:    Size  Location     Type
  4121 ;;  a               4   26[BANK0 ] unsigned char 
  4122 ;;  b               4   30[BANK0 ] unsigned char 
  4123 ;; Auto vars:     Size  Location     Type
  4124 ;;  grs             4   46[BANK0 ] unsigned long 
  4125 ;;  rem             4   39[BANK0 ] unsigned long 
  4126 ;;  new_exp         2   44[BANK0 ] short 
  4127 ;;  aexp            1   51[BANK0 ] unsigned char 
  4128 ;;  bexp            1   50[BANK0 ] unsigned char 
  4129 ;;  sign            1   43[BANK0 ] unsigned char 
  4130 ;; Return value:  Size  Location     Type
  4131 ;;                  4   26[BANK0 ] unsigned char 
  4132 ;; Registers used:
  4133 ;;		wreg, status,2, status,0, btemp+1
  4134 ;; Tracked objects:
  4135 ;;		On entry : 0/0
  4136 ;;		On exit  : 0/0
  4137 ;;		Unchanged: 0/0
  4138 ;; Data sizes:     COMMON   BANK0   BANK1   BANK3   BANK2
  4139 ;;      Params:         0       8       0       0       0
  4140 ;;      Locals:         0      13       0       0       0
  4141 ;;      Temps:          0       5       0       0       0
  4142 ;;      Totals:         0      26       0       0       0
  4143 ;;Total ram usage:       26 bytes
  4144 ;; Hardware stack levels used: 1
  4145 ;; This function calls:
  4146 ;;		Nothing
  4147 ;; This function is called by:
  4148 ;;		_isr
  4149 ;; This function uses a non-reentrant model
  4150 ;;
  4151                           
  4152     036F                     ___fldiv:	
  4153                           ;psect for function ___fldiv
  4154                           
  4155     036F                     i1l1673:	
  4156                           ;incstack = 0
  4157                           ; Regs used in ___fldiv: [wreg+status,2+status,0+btemp+1]
  4158                           
  4159     036F  1283               	bcf	3,5	;RP0=0, select bank0
  4160     0370  1303               	bcf	3,6	;RP1=0, select bank0
  4161     0371  0841               	movf	___fldiv@b+3,w
  4162     0372  3980               	andlw	128
  4163     0373  00CB               	movwf	___fldiv@sign
  4164     0374                     i1l1675:
  4165     0374  0841               	movf	___fldiv@b+3,w
  4166     0375  00C2               	movwf	??___fldiv
  4167     0376  0742               	addwf	??___fldiv,w
  4168     0377  00D2               	movwf	___fldiv@bexp
  4169     0378                     i1l1677:
  4170     0378  1FC0               	btfss	___fldiv@b+2,7
  4171     0379  2B7B               	goto	u193_21
  4172     037A  2B7C               	goto	u193_20
  4173     037B                     u193_21:
  4174     037B  2B7D               	goto	i1l1681
  4175     037C                     u193_20:
  4176     037C                     i1l1679:
  4177     037C  1452               	bsf	___fldiv@bexp,0
  4178     037D                     i1l1681:
  4179     037D  0852               	movf	___fldiv@bexp,w
  4180     037E  1903               	btfsc	3,2
  4181     037F  2B81               	goto	u194_21
  4182     0380  2B82               	goto	u194_20
  4183     0381                     u194_21:
  4184     0381  2B92               	goto	i1l1691
  4185     0382                     u194_20:
  4186     0382                     i1l1683:
  4187     0382  0A52               	incf	___fldiv@bexp,w
  4188     0383  1D03               	btfss	3,2
  4189     0384  2B86               	goto	u195_21
  4190     0385  2B87               	goto	u195_20
  4191     0386                     u195_21:
  4192     0386  2B8F               	goto	i1l1687
  4193     0387                     u195_20:
  4194     0387                     i1l1685:
  4195     0387  3000               	movlw	0
  4196     0388  00C1               	movwf	___fldiv@b+3
  4197     0389  3000               	movlw	0
  4198     038A  00C0               	movwf	___fldiv@b+2
  4199     038B  3000               	movlw	0
  4200     038C  00BF               	movwf	___fldiv@b+1
  4201     038D  3000               	movlw	0
  4202     038E  00BE               	movwf	___fldiv@b
  4203     038F                     i1l1687:
  4204     038F  17C0               	bsf	___fldiv@b+2,7
  4205     0390                     i1l1689:
  4206     0390  01C1               	clrf	___fldiv@b+3
  4207     0391  2B9A               	goto	i1l1693
  4208     0392                     i1l1691:
  4209     0392  3000               	movlw	0
  4210     0393  00C1               	movwf	___fldiv@b+3
  4211     0394  3000               	movlw	0
  4212     0395  00C0               	movwf	___fldiv@b+2
  4213     0396  3000               	movlw	0
  4214     0397  00BF               	movwf	___fldiv@b+1
  4215     0398  3000               	movlw	0
  4216     0399  00BE               	movwf	___fldiv@b
  4217     039A                     i1l1693:
  4218     039A  083D               	movf	___fldiv@a+3,w
  4219     039B  3980               	andlw	128
  4220     039C  00FF               	movwf	btemp+1
  4221     039D  087F               	movf	btemp+1,w
  4222     039E  06CB               	xorwf	___fldiv@sign,f
  4223     039F                     i1l1695:
  4224     039F  083D               	movf	___fldiv@a+3,w
  4225     03A0  00C2               	movwf	??___fldiv
  4226     03A1  0742               	addwf	??___fldiv,w
  4227     03A2  00D3               	movwf	___fldiv@aexp
  4228     03A3                     i1l1697:
  4229     03A3  1FBC               	btfss	___fldiv@a+2,7
  4230     03A4  2BA6               	goto	u196_21
  4231     03A5  2BA7               	goto	u196_20
  4232     03A6                     u196_21:
  4233     03A6  2BA8               	goto	i1l1701
  4234     03A7                     u196_20:
  4235     03A7                     i1l1699:
  4236     03A7  1453               	bsf	___fldiv@aexp,0
  4237     03A8                     i1l1701:
  4238     03A8  0853               	movf	___fldiv@aexp,w
  4239     03A9  1903               	btfsc	3,2
  4240     03AA  2BAC               	goto	u197_21
  4241     03AB  2BAD               	goto	u197_20
  4242     03AC                     u197_21:
  4243     03AC  2BBD               	goto	i1l1711
  4244     03AD                     u197_20:
  4245     03AD                     i1l1703:
  4246     03AD  0A53               	incf	___fldiv@aexp,w
  4247     03AE  1D03               	btfss	3,2
  4248     03AF  2BB1               	goto	u198_21
  4249     03B0  2BB2               	goto	u198_20
  4250     03B1                     u198_21:
  4251     03B1  2BBA               	goto	i1l1707
  4252     03B2                     u198_20:
  4253     03B2                     i1l1705:
  4254     03B2  3000               	movlw	0
  4255     03B3  00BD               	movwf	___fldiv@a+3
  4256     03B4  3000               	movlw	0
  4257     03B5  00BC               	movwf	___fldiv@a+2
  4258     03B6  3000               	movlw	0
  4259     03B7  00BB               	movwf	___fldiv@a+1
  4260     03B8  3000               	movlw	0
  4261     03B9  00BA               	movwf	___fldiv@a
  4262     03BA                     i1l1707:
  4263     03BA  17BC               	bsf	___fldiv@a+2,7
  4264     03BB                     i1l1709:
  4265     03BB  01BD               	clrf	___fldiv@a+3
  4266     03BC  2BC5               	goto	i1l576
  4267     03BD                     i1l1711:
  4268     03BD  3000               	movlw	0
  4269     03BE  00BD               	movwf	___fldiv@a+3
  4270     03BF  3000               	movlw	0
  4271     03C0  00BC               	movwf	___fldiv@a+2
  4272     03C1  3000               	movlw	0
  4273     03C2  00BB               	movwf	___fldiv@a+1
  4274     03C3  3000               	movlw	0
  4275     03C4  00BA               	movwf	___fldiv@a
  4276     03C5                     i1l576:
  4277     03C5  083D               	movf	___fldiv@a+3,w
  4278     03C6  043C               	iorwf	___fldiv@a+2,w
  4279     03C7  043B               	iorwf	___fldiv@a+1,w
  4280     03C8  043A               	iorwf	___fldiv@a,w
  4281     03C9  1D03               	skipz
  4282     03CA  2BCC               	goto	u199_21
  4283     03CB  2BCD               	goto	u199_20
  4284     03CC                     u199_21:
  4285     03CC  2BE6               	goto	i1l1721
  4286     03CD                     u199_20:
  4287     03CD                     i1l1713:
  4288     03CD  3000               	movlw	0
  4289     03CE  00C1               	movwf	___fldiv@b+3
  4290     03CF  3000               	movlw	0
  4291     03D0  00C0               	movwf	___fldiv@b+2
  4292     03D1  3000               	movlw	0
  4293     03D2  00BF               	movwf	___fldiv@b+1
  4294     03D3  3000               	movlw	0
  4295     03D4  00BE               	movwf	___fldiv@b
  4296     03D5  3080               	movlw	128
  4297     03D6  04C0               	iorwf	___fldiv@b+2,f
  4298     03D7  307F               	movlw	127
  4299     03D8  04C1               	iorwf	___fldiv@b+3,f
  4300     03D9                     i1l1715:
  4301     03D9  084B               	movf	___fldiv@sign,w
  4302     03DA  00FF               	movwf	btemp+1
  4303     03DB  087F               	movf	btemp+1,w
  4304     03DC  04C1               	iorwf	___fldiv@b+3,f
  4305     03DD                     i1l1717:
  4306     03DD  0841               	movf	___fldiv@b+3,w
  4307     03DE  00BD               	movwf	?___fldiv+3
  4308     03DF  0840               	movf	___fldiv@b+2,w
  4309     03E0  00BC               	movwf	?___fldiv+2
  4310     03E1  083F               	movf	___fldiv@b+1,w
  4311     03E2  00BB               	movwf	?___fldiv+1
  4312     03E3  083E               	movf	___fldiv@b,w
  4313     03E4  00BA               	movwf	?___fldiv
  4314     03E5  2D3D               	goto	i1l578
  4315     03E6                     i1l1721:
  4316     03E6  0852               	movf	___fldiv@bexp,w
  4317     03E7  1D03               	btfss	3,2
  4318     03E8  2BEA               	goto	u200_21
  4319     03E9  2BEB               	goto	u200_20
  4320     03EA                     u200_21:
  4321     03EA  2BF4               	goto	i1l1727
  4322     03EB                     u200_20:
  4323     03EB                     i1l1723:
  4324     03EB  3000               	movlw	0
  4325     03EC  00BD               	movwf	?___fldiv+3
  4326     03ED  3000               	movlw	0
  4327     03EE  00BC               	movwf	?___fldiv+2
  4328     03EF  3000               	movlw	0
  4329     03F0  00BB               	movwf	?___fldiv+1
  4330     03F1  3000               	movlw	0
  4331     03F2  00BA               	movwf	?___fldiv
  4332     03F3  2D3D               	goto	i1l578
  4333     03F4                     i1l1727:
  4334     03F4  0852               	movf	___fldiv@bexp,w
  4335     03F5  00C2               	movwf	??___fldiv
  4336     03F6  01C3               	clrf	??___fldiv+1
  4337     03F7  0843               	movf	??___fldiv+1,w
  4338     03F8  00C5               	movwf	??___fldiv+3
  4339     03F9  0853               	movf	___fldiv@aexp,w
  4340     03FA  0242               	subwf	??___fldiv,w
  4341     03FB  00C4               	movwf	??___fldiv+2
  4342     03FC  1C03               	skipc
  4343     03FD  03C5               	decf	??___fldiv+3,f
  4344     03FE  0844               	movf	??___fldiv+2,w
  4345     03FF  3E7F               	addlw	127
  4346     0400  00CC               	movwf	___fldiv@new_exp
  4347     0401  0845               	movf	??___fldiv+3,w
  4348     0402  1803               	skipnc
  4349     0403  3E01               	addlw	1
  4350     0404  3E00               	addlw	0
  4351     0405  00CD               	movwf	___fldiv@new_exp+1
  4352     0406                     i1l1729:
  4353     0406  0841               	movf	___fldiv@b+3,w
  4354     0407  00CA               	movwf	___fldiv@rem+3
  4355     0408  0840               	movf	___fldiv@b+2,w
  4356     0409  00C9               	movwf	___fldiv@rem+2
  4357     040A  083F               	movf	___fldiv@b+1,w
  4358     040B  00C8               	movwf	___fldiv@rem+1
  4359     040C  083E               	movf	___fldiv@b,w
  4360     040D  00C7               	movwf	___fldiv@rem
  4361     040E                     i1l1731:
  4362     040E  3000               	movlw	0
  4363     040F  00C1               	movwf	___fldiv@b+3
  4364     0410  3000               	movlw	0
  4365     0411  00C0               	movwf	___fldiv@b+2
  4366     0412  3000               	movlw	0
  4367     0413  00BF               	movwf	___fldiv@b+1
  4368     0414  3000               	movlw	0
  4369     0415  00BE               	movwf	___fldiv@b
  4370     0416                     i1l1733:
  4371     0416  3000               	movlw	0
  4372     0417  00D1               	movwf	___fldiv@grs+3
  4373     0418  3000               	movlw	0
  4374     0419  00D0               	movwf	___fldiv@grs+2
  4375     041A  3000               	movlw	0
  4376     041B  00CF               	movwf	___fldiv@grs+1
  4377     041C  3000               	movlw	0
  4378     041D  00CE               	movwf	___fldiv@grs
  4379     041E                     i1l1735:
  4380     041E  01D3               	clrf	___fldiv@aexp
  4381     041F  2C6A               	goto	i1l1755
  4382     0420                     i1l1737:
  4383     0420  0853               	movf	___fldiv@aexp,w
  4384     0421  1903               	btfsc	3,2
  4385     0422  2C24               	goto	u201_21
  4386     0423  2C25               	goto	u201_20
  4387     0424                     u201_21:
  4388     0424  2C45               	goto	i1l1747
  4389     0425                     u201_20:
  4390     0425                     i1l1739:
  4391     0425  3001               	movlw	1
  4392     0426  00C2               	movwf	??___fldiv
  4393     0427                     u202_25:
  4394     0427  1003               	clrc
  4395     0428  0DC7               	rlf	___fldiv@rem,f
  4396     0429  0DC8               	rlf	___fldiv@rem+1,f
  4397     042A  0DC9               	rlf	___fldiv@rem+2,f
  4398     042B  0DCA               	rlf	___fldiv@rem+3,f
  4399     042C  0BC2               	decfsz	??___fldiv,f
  4400     042D  2C27               	goto	u202_25
  4401     042E  3001               	movlw	1
  4402     042F  00C2               	movwf	??___fldiv
  4403     0430                     u203_25:
  4404     0430  1003               	clrc
  4405     0431  0DBE               	rlf	___fldiv@b,f
  4406     0432  0DBF               	rlf	___fldiv@b+1,f
  4407     0433  0DC0               	rlf	___fldiv@b+2,f
  4408     0434  0DC1               	rlf	___fldiv@b+3,f
  4409     0435  0BC2               	decfsz	??___fldiv,f
  4410     0436  2C30               	goto	u203_25
  4411     0437                     i1l1741:
  4412     0437  1FD1               	btfss	___fldiv@grs+3,7
  4413     0438  2C3A               	goto	u204_21
  4414     0439  2C3B               	goto	u204_20
  4415     043A                     u204_21:
  4416     043A  2C3C               	goto	i1l1745
  4417     043B                     u204_20:
  4418     043B                     i1l1743:
  4419     043B  143E               	bsf	___fldiv@b,0
  4420     043C                     i1l1745:
  4421     043C  3001               	movlw	1
  4422     043D  00C2               	movwf	??___fldiv
  4423     043E                     u205_25:
  4424     043E  1003               	clrc
  4425     043F  0DCE               	rlf	___fldiv@grs,f
  4426     0440  0DCF               	rlf	___fldiv@grs+1,f
  4427     0441  0DD0               	rlf	___fldiv@grs+2,f
  4428     0442  0DD1               	rlf	___fldiv@grs+3,f
  4429     0443  0BC2               	decfsz	??___fldiv,f
  4430     0444  2C3E               	goto	u205_25
  4431     0445                     i1l1747:
  4432     0445  083D               	movf	___fldiv@a+3,w
  4433     0446  024A               	subwf	___fldiv@rem+3,w
  4434     0447  1D03               	skipz
  4435     0448  2C53               	goto	u206_25
  4436     0449  083C               	movf	___fldiv@a+2,w
  4437     044A  0249               	subwf	___fldiv@rem+2,w
  4438     044B  1D03               	skipz
  4439     044C  2C53               	goto	u206_25
  4440     044D  083B               	movf	___fldiv@a+1,w
  4441     044E  0248               	subwf	___fldiv@rem+1,w
  4442     044F  1D03               	skipz
  4443     0450  2C53               	goto	u206_25
  4444     0451  083A               	movf	___fldiv@a,w
  4445     0452  0247               	subwf	___fldiv@rem,w
  4446     0453                     u206_25:
  4447     0453  1C03               	skipc
  4448     0454  2C56               	goto	u206_21
  4449     0455  2C57               	goto	u206_20
  4450     0456                     u206_21:
  4451     0456  2C66               	goto	i1l1753
  4452     0457                     u206_20:
  4453     0457                     i1l1749:
  4454     0457  1751               	bsf	___fldiv@grs+3,6
  4455     0458                     i1l1751:
  4456     0458  083A               	movf	___fldiv@a,w
  4457     0459  02C7               	subwf	___fldiv@rem,f
  4458     045A  083B               	movf	___fldiv@a+1,w
  4459     045B  1C03               	skipc
  4460     045C  0F3B               	incfsz	___fldiv@a+1,w
  4461     045D  02C8               	subwf	___fldiv@rem+1,f
  4462     045E  083C               	movf	___fldiv@a+2,w
  4463     045F  1C03               	skipc
  4464     0460  0F3C               	incfsz	___fldiv@a+2,w
  4465     0461  02C9               	subwf	___fldiv@rem+2,f
  4466     0462  083D               	movf	___fldiv@a+3,w
  4467     0463  1C03               	skipc
  4468     0464  0F3D               	incfsz	___fldiv@a+3,w
  4469     0465  02CA               	subwf	___fldiv@rem+3,f
  4470     0466                     i1l1753:
  4471     0466  3001               	movlw	1
  4472     0467  00FF               	movwf	btemp+1
  4473     0468  087F               	movf	btemp+1,w
  4474     0469  07D3               	addwf	___fldiv@aexp,f
  4475     046A                     i1l1755:
  4476     046A  301A               	movlw	26
  4477     046B  0253               	subwf	___fldiv@aexp,w
  4478     046C  1C03               	skipc
  4479     046D  2C6F               	goto	u207_21
  4480     046E  2C70               	goto	u207_20
  4481     046F                     u207_21:
  4482     046F  2C20               	goto	i1l1737
  4483     0470                     u207_20:
  4484     0470                     i1l1757:
  4485     0470  084A               	movf	___fldiv@rem+3,w
  4486     0471  0449               	iorwf	___fldiv@rem+2,w
  4487     0472  0448               	iorwf	___fldiv@rem+1,w
  4488     0473  0447               	iorwf	___fldiv@rem,w
  4489     0474  1903               	skipnz
  4490     0475  2C77               	goto	u208_21
  4491     0476  2C78               	goto	u208_20
  4492     0477                     u208_21:
  4493     0477  2C97               	goto	i1l1771
  4494     0478                     u208_20:
  4495     0478                     i1l1759:
  4496     0478  144E               	bsf	___fldiv@grs,0
  4497     0479  2C97               	goto	i1l1771
  4498     047A                     i1l1761:
  4499     047A  3001               	movlw	1
  4500     047B  00C2               	movwf	??___fldiv
  4501     047C                     u209_25:
  4502     047C  1003               	clrc
  4503     047D  0DBE               	rlf	___fldiv@b,f
  4504     047E  0DBF               	rlf	___fldiv@b+1,f
  4505     047F  0DC0               	rlf	___fldiv@b+2,f
  4506     0480  0DC1               	rlf	___fldiv@b+3,f
  4507     0481  0BC2               	decfsz	??___fldiv,f
  4508     0482  2C7C               	goto	u209_25
  4509     0483                     i1l1763:
  4510     0483  1FD1               	btfss	___fldiv@grs+3,7
  4511     0484  2C86               	goto	u210_21
  4512     0485  2C87               	goto	u210_20
  4513     0486                     u210_21:
  4514     0486  2C88               	goto	i1l1767
  4515     0487                     u210_20:
  4516     0487                     i1l1765:
  4517     0487  143E               	bsf	___fldiv@b,0
  4518     0488                     i1l1767:
  4519     0488  3001               	movlw	1
  4520     0489  00C2               	movwf	??___fldiv
  4521     048A                     u211_25:
  4522     048A  1003               	clrc
  4523     048B  0DCE               	rlf	___fldiv@grs,f
  4524     048C  0DCF               	rlf	___fldiv@grs+1,f
  4525     048D  0DD0               	rlf	___fldiv@grs+2,f
  4526     048E  0DD1               	rlf	___fldiv@grs+3,f
  4527     048F  0BC2               	decfsz	??___fldiv,f
  4528     0490  2C8A               	goto	u211_25
  4529     0491                     i1l1769:
  4530     0491  30FF               	movlw	255
  4531     0492  07CC               	addwf	___fldiv@new_exp,f
  4532     0493  1803               	skipnc
  4533     0494  0ACD               	incf	___fldiv@new_exp+1,f
  4534     0495  30FF               	movlw	255
  4535     0496  07CD               	addwf	___fldiv@new_exp+1,f
  4536     0497                     i1l1771:
  4537     0497  1FC0               	btfss	___fldiv@b+2,7
  4538     0498  2C9A               	goto	u212_21
  4539     0499  2C9B               	goto	u212_20
  4540     049A                     u212_21:
  4541     049A  2C7A               	goto	i1l1761
  4542     049B                     u212_20:
  4543     049B                     i1l1773:
  4544     049B  01D3               	clrf	___fldiv@aexp
  4545     049C                     i1l1775:
  4546     049C  1FD1               	btfss	___fldiv@grs+3,7
  4547     049D  2C9F               	goto	u213_21
  4548     049E  2CA0               	goto	u213_20
  4549     049F                     u213_21:
  4550     049F  2CBC               	goto	i1l1783
  4551     04A0                     u213_20:
  4552     04A0                     i1l1777:
  4553     04A0  30FF               	movlw	255
  4554     04A1  054E               	andwf	___fldiv@grs,w
  4555     04A2  00C2               	movwf	??___fldiv
  4556     04A3  30FF               	movlw	255
  4557     04A4  054F               	andwf	___fldiv@grs+1,w
  4558     04A5  00C3               	movwf	??___fldiv+1
  4559     04A6  30FF               	movlw	255
  4560     04A7  0550               	andwf	___fldiv@grs+2,w
  4561     04A8  00C4               	movwf	??___fldiv+2
  4562     04A9  307F               	movlw	127
  4563     04AA  0551               	andwf	___fldiv@grs+3,w
  4564     04AB  00C5               	movwf	??___fldiv+3
  4565     04AC  0845               	movf	??___fldiv+3,w
  4566     04AD  0444               	iorwf	??___fldiv+2,w
  4567     04AE  0443               	iorwf	??___fldiv+1,w
  4568     04AF  0442               	iorwf	??___fldiv,w
  4569     04B0  1903               	skipnz
  4570     04B1  2CB3               	goto	u214_21
  4571     04B2  2CB4               	goto	u214_20
  4572     04B3                     u214_21:
  4573     04B3  2CB7               	goto	i1l592
  4574     04B4                     u214_20:
  4575     04B4                     i1l1779:
  4576     04B4  01D3               	clrf	___fldiv@aexp
  4577     04B5  0AD3               	incf	___fldiv@aexp,f
  4578     04B6  2CBC               	goto	i1l1783
  4579     04B7                     i1l592:
  4580     04B7  1C3E               	btfss	___fldiv@b,0
  4581     04B8  2CBA               	goto	u215_21
  4582     04B9  2CBB               	goto	u215_20
  4583     04BA                     u215_21:
  4584     04BA  2CBC               	goto	i1l1783
  4585     04BB                     u215_20:
  4586     04BB  2CB4               	goto	i1l1779
  4587     04BC                     i1l1783:
  4588     04BC  0853               	movf	___fldiv@aexp,w
  4589     04BD  1903               	btfsc	3,2
  4590     04BE  2CC0               	goto	u216_21
  4591     04BF  2CC1               	goto	u216_20
  4592     04C0                     u216_21:
  4593     04C0  2CF2               	goto	i1l1793
  4594     04C1                     u216_20:
  4595     04C1                     i1l1785:
  4596     04C1  3001               	movlw	1
  4597     04C2  07BE               	addwf	___fldiv@b,f
  4598     04C3  3000               	movlw	0
  4599     04C4  1803               	skipnc
  4600     04C5  3001               	movlw	1
  4601     04C6  07BF               	addwf	___fldiv@b+1,f
  4602     04C7  3000               	movlw	0
  4603     04C8  1803               	skipnc
  4604     04C9  3001               	movlw	1
  4605     04CA  07C0               	addwf	___fldiv@b+2,f
  4606     04CB  3000               	movlw	0
  4607     04CC  1803               	skipnc
  4608     04CD  3001               	movlw	1
  4609     04CE  07C1               	addwf	___fldiv@b+3,f
  4610     04CF                     i1l1787:
  4611     04CF  1C41               	btfss	___fldiv@b+3,0
  4612     04D0  2CD2               	goto	u217_21
  4613     04D1  2CD3               	goto	u217_20
  4614     04D2                     u217_21:
  4615     04D2  2CF2               	goto	i1l1793
  4616     04D3                     u217_20:
  4617     04D3                     i1l1789:
  4618     04D3  083E               	movf	___fldiv@b,w
  4619     04D4  00C2               	movwf	??___fldiv
  4620     04D5  083F               	movf	___fldiv@b+1,w
  4621     04D6  00C3               	movwf	??___fldiv+1
  4622     04D7  0840               	movf	___fldiv@b+2,w
  4623     04D8  00C4               	movwf	??___fldiv+2
  4624     04D9  0841               	movf	___fldiv@b+3,w
  4625     04DA  00C5               	movwf	??___fldiv+3
  4626     04DB  3001               	movlw	1
  4627     04DC  00C6               	movwf	??___fldiv+4
  4628     04DD                     u218_25:
  4629     04DD  0D45               	rlf	??___fldiv+3,w
  4630     04DE  0CC5               	rrf	??___fldiv+3,f
  4631     04DF  0CC4               	rrf	??___fldiv+2,f
  4632     04E0  0CC3               	rrf	??___fldiv+1,f
  4633     04E1  0CC2               	rrf	??___fldiv,f
  4634     04E2                     u218_20:
  4635     04E2  0BC6               	decfsz	??___fldiv+4,f
  4636     04E3  2CDD               	goto	u218_25
  4637     04E4  0845               	movf	??___fldiv+3,w
  4638     04E5  00C1               	movwf	___fldiv@b+3
  4639     04E6  0844               	movf	??___fldiv+2,w
  4640     04E7  00C0               	movwf	___fldiv@b+2
  4641     04E8  0843               	movf	??___fldiv+1,w
  4642     04E9  00BF               	movwf	___fldiv@b+1
  4643     04EA  0842               	movf	??___fldiv,w
  4644     04EB  00BE               	movwf	___fldiv@b
  4645     04EC                     i1l1791:
  4646     04EC  3001               	movlw	1
  4647     04ED  07CC               	addwf	___fldiv@new_exp,f
  4648     04EE  1803               	skipnc
  4649     04EF  0ACD               	incf	___fldiv@new_exp+1,f
  4650     04F0  3000               	movlw	0
  4651     04F1  07CD               	addwf	___fldiv@new_exp+1,f
  4652     04F2                     i1l1793:
  4653     04F2  084D               	movf	___fldiv@new_exp+1,w
  4654     04F3  3A80               	xorlw	128
  4655     04F4  00FF               	movwf	btemp+1
  4656     04F5  3080               	movlw	128
  4657     04F6  027F               	subwf	btemp+1,w
  4658     04F7  1D03               	skipz
  4659     04F8  2CFB               	goto	u219_25
  4660     04F9  30FF               	movlw	255
  4661     04FA  024C               	subwf	___fldiv@new_exp,w
  4662     04FB                     u219_25:
  4663     04FB  1C03               	skipc
  4664     04FC  2CFE               	goto	u219_21
  4665     04FD  2CFF               	goto	u219_20
  4666     04FE                     u219_21:
  4667     04FE  2D0D               	goto	i1l1797
  4668     04FF                     u219_20:
  4669     04FF                     i1l1795:
  4670     04FF  30FF               	movlw	255
  4671     0500  1283               	bcf	3,5	;RP0=0, select bank0
  4672     0501  1303               	bcf	3,6	;RP1=0, select bank0
  4673     0502  00CC               	movwf	___fldiv@new_exp
  4674     0503  3000               	movlw	0
  4675     0504  00CD               	movwf	___fldiv@new_exp+1
  4676     0505  3000               	movlw	0
  4677     0506  00C1               	movwf	___fldiv@b+3
  4678     0507  3000               	movlw	0
  4679     0508  00C0               	movwf	___fldiv@b+2
  4680     0509  3000               	movlw	0
  4681     050A  00BF               	movwf	___fldiv@b+1
  4682     050B  3000               	movlw	0
  4683     050C  00BE               	movwf	___fldiv@b
  4684     050D                     i1l1797:
  4685     050D  1283               	bcf	3,5	;RP0=0, select bank0
  4686     050E  1303               	bcf	3,6	;RP1=0, select bank0
  4687     050F  084D               	movf	___fldiv@new_exp+1,w
  4688     0510  3A80               	xorlw	128
  4689     0511  00FF               	movwf	btemp+1
  4690     0512  3080               	movlw	128
  4691     0513  027F               	subwf	btemp+1,w
  4692     0514  1D03               	skipz
  4693     0515  2D18               	goto	u220_25
  4694     0516  3001               	movlw	1
  4695     0517  024C               	subwf	___fldiv@new_exp,w
  4696     0518                     u220_25:
  4697     0518  1803               	skipnc
  4698     0519  2D1B               	goto	u220_21
  4699     051A  2D1C               	goto	u220_20
  4700     051B                     u220_21:
  4701     051B  2D29               	goto	i1l598
  4702     051C                     u220_20:
  4703     051C                     i1l1799:
  4704     051C  1283               	bcf	3,5	;RP0=0, select bank0
  4705     051D  1303               	bcf	3,6	;RP1=0, select bank0
  4706     051E  01CC               	clrf	___fldiv@new_exp
  4707     051F  01CD               	clrf	___fldiv@new_exp+1
  4708     0520                     i1l1801:
  4709     0520  3000               	movlw	0
  4710     0521  00C1               	movwf	___fldiv@b+3
  4711     0522  3000               	movlw	0
  4712     0523  00C0               	movwf	___fldiv@b+2
  4713     0524  3000               	movlw	0
  4714     0525  00BF               	movwf	___fldiv@b+1
  4715     0526  3000               	movlw	0
  4716     0527  00BE               	movwf	___fldiv@b
  4717     0528                     i1l1803:
  4718     0528  01CB               	clrf	___fldiv@sign
  4719     0529                     i1l598:
  4720     0529  1283               	bcf	3,5	;RP0=0, select bank0
  4721     052A  1303               	bcf	3,6	;RP1=0, select bank0
  4722     052B  084C               	movf	___fldiv@new_exp,w
  4723     052C  00D2               	movwf	___fldiv@bexp
  4724     052D                     i1l1805:
  4725     052D  1C52               	btfss	___fldiv@bexp,0
  4726     052E  2D30               	goto	u221_21
  4727     052F  2D31               	goto	u221_20
  4728     0530                     u221_21:
  4729     0530  2D33               	goto	i1l1809
  4730     0531                     u221_20:
  4731     0531                     i1l1807:
  4732     0531  17C0               	bsf	___fldiv@b+2,7
  4733     0532  2D37               	goto	i1l1811
  4734     0533                     i1l1809:
  4735     0533  307F               	movlw	127
  4736     0534  00FF               	movwf	btemp+1
  4737     0535  087F               	movf	btemp+1,w
  4738     0536  05C0               	andwf	___fldiv@b+2,f
  4739     0537                     i1l1811:
  4740     0537  0852               	movf	___fldiv@bexp,w
  4741     0538  00C2               	movwf	??___fldiv
  4742     0539  1003               	clrc
  4743     053A  0C42               	rrf	??___fldiv,w
  4744     053B  00C1               	movwf	___fldiv@b+3
  4745     053C  2BD9               	goto	i1l1715
  4746     053D                     i1l578:
  4747     053D  0008               	return
  4748     053E                     __end_of___fldiv:
  4749                           
  4750                           	psect	text22
  4751     0DDD                     __ptext22:	
  4752 ;; *************** function _UART_SendString *****************
  4753 ;; Defined at:
  4754 ;;		line 230 in file "main.c"
  4755 ;; Parameters:    Size  Location     Type
  4756 ;;  str             1    wreg     PTR const unsigned char 
  4757 ;;		 -> STR_3(4), 
  4758 ;; Auto vars:     Size  Location     Type
  4759 ;;  str             1    1[COMMON] PTR const unsigned char 
  4760 ;;		 -> STR_3(4), 
  4761 ;; Return value:  Size  Location     Type
  4762 ;;                  1    wreg      void 
  4763 ;; Registers used:
  4764 ;;		wreg, fsr0l, fsr0h, status,2, status,0, btemp+1, pclath, cstack
  4765 ;; Tracked objects:
  4766 ;;		On entry : 0/0
  4767 ;;		On exit  : 0/0
  4768 ;;		Unchanged: 0/0
  4769 ;; Data sizes:     COMMON   BANK0   BANK1   BANK3   BANK2
  4770 ;;      Params:         0       0       0       0       0
  4771 ;;      Locals:         1       0       0       0       0
  4772 ;;      Temps:          0       0       0       0       0
  4773 ;;      Totals:         1       0       0       0       0
  4774 ;;Total ram usage:        1 bytes
  4775 ;; Hardware stack levels used: 1
  4776 ;; Hardware stack levels required when called: 1
  4777 ;; This function calls:
  4778 ;;		_UART_SendChar
  4779 ;; This function is called by:
  4780 ;;		_isr
  4781 ;; This function uses a non-reentrant model
  4782 ;;
  4783                           
  4784     0DDD                     _UART_SendString:	
  4785                           ;psect for function _UART_SendString
  4786                           
  4787                           
  4788                           ;incstack = 0
  4789                           ; Regs used in _UART_SendString: [wreg-fsr0h+status,2+status,0+btemp+1+pclath+cstack]
  4790                           ;UART_SendString@str stored from wreg
  4791     0DDD  00F1               	movwf	UART_SendString@str
  4792     0DDE                     i1l1649:
  4793                           
  4794                           ;main.c: 230: void UART_SendString(const char *str);main.c: 231: {;main.c: 232:     whil
      +                          e(*str)
  4795     0DDE  2DEF               	goto	i1l1655
  4796     0DDF                     i1l1651:
  4797                           
  4798                           ;main.c: 233:     {;main.c: 234:         UART_SendChar(*str++);
  4799     0DDF  0871               	movf	UART_SendString@str,w
  4800     0DE0  0084               	movwf	4
  4801     0DE1  120A  158A  200A  120A  158A  	fcall	stringdir
  4802     0DE6  120A  158A  258F  120A  158A  	fcall	_UART_SendChar
  4803     0DEB                     i1l1653:
  4804     0DEB  3001               	movlw	1
  4805     0DEC  00FF               	movwf	btemp+1
  4806     0DED  087F               	movf	btemp+1,w
  4807     0DEE  07F1               	addwf	UART_SendString@str,f
  4808     0DEF                     i1l1655:
  4809                           
  4810                           ;main.c: 232:     while(*str)
  4811     0DEF  0871               	movf	UART_SendString@str,w
  4812     0DF0  0084               	movwf	4
  4813     0DF1  120A  158A  200A  120A  158A  	fcall	stringdir
  4814     0DF6  3A00               	xorlw	0
  4815     0DF7  1D03               	skipz
  4816     0DF8  2DFA               	goto	u192_21
  4817     0DF9  2DFB               	goto	u192_20
  4818     0DFA                     u192_21:
  4819     0DFA  2DDF               	goto	i1l1651
  4820     0DFB                     u192_20:
  4821     0DFB                     i1l133:
  4822     0DFB  0008               	return
  4823     0DFC                     __end_of_UART_SendString:
  4824                           
  4825                           	psect	text23
  4826     0D8F                     __ptext23:	
  4827 ;; *************** function _UART_SendChar *****************
  4828 ;; Defined at:
  4829 ;;		line 224 in file "main.c"
  4830 ;; Parameters:    Size  Location     Type
  4831 ;;  data            1    wreg     unsigned char 
  4832 ;; Auto vars:     Size  Location     Type
  4833 ;;  data            1    0[COMMON] unsigned char 
  4834 ;; Return value:  Size  Location     Type
  4835 ;;                  1    wreg      void 
  4836 ;; Registers used:
  4837 ;;		wreg
  4838 ;; Tracked objects:
  4839 ;;		On entry : 0/0
  4840 ;;		On exit  : 0/0
  4841 ;;		Unchanged: 0/0
  4842 ;; Data sizes:     COMMON   BANK0   BANK1   BANK3   BANK2
  4843 ;;      Params:         0       0       0       0       0
  4844 ;;      Locals:         1       0       0       0       0
  4845 ;;      Temps:          0       0       0       0       0
  4846 ;;      Totals:         1       0       0       0       0
  4847 ;;Total ram usage:        1 bytes
  4848 ;; Hardware stack levels used: 1
  4849 ;; This function calls:
  4850 ;;		Nothing
  4851 ;; This function is called by:
  4852 ;;		_UART_SendString
  4853 ;; This function uses a non-reentrant model
  4854 ;;
  4855                           
  4856     0D8F                     _UART_SendChar:	
  4857                           ;psect for function _UART_SendChar
  4858                           
  4859                           
  4860                           ;incstack = 0
  4861                           ; Regs used in _UART_SendChar: [wreg]
  4862                           ;UART_SendChar@data stored from wreg
  4863     0D8F  00F0               	movwf	UART_SendChar@data
  4864     0D90                     i1l1351:
  4865     0D90                     i1l124:	
  4866                           ;main.c: 224: void UART_SendChar(char data);main.c: 225: {;main.c: 226:     while(!TXIF)
      +                          ;
  4867                           
  4868     0D90  1283               	bcf	3,5	;RP0=0, select bank0
  4869     0D91  1303               	bcf	3,6	;RP1=0, select bank0
  4870     0D92  1E0C               	btfss	12,4	;volatile
  4871     0D93  2D95               	goto	u127_21
  4872     0D94  2D96               	goto	u127_20
  4873     0D95                     u127_21:
  4874     0D95  2D90               	goto	i1l124
  4875     0D96                     u127_20:
  4876     0D96                     i1l1353:
  4877                           
  4878                           ;main.c: 227:     TXREG = data;
  4879     0D96  0870               	movf	UART_SendChar@data,w
  4880     0D97  0099               	movwf	25	;volatile
  4881     0D98                     i1l127:
  4882     0D98  0008               	return
  4883     0D99                     __end_of_UART_SendChar:
  4884     007E                     btemp	set	126	;btemp
  4885     007E                     wtemp0	set	126
  4886                           
  4887                           	psect	config
  4888                           
  4889                           ;Config register CONFIG @ 0x2007
  4890                           ;	Oscillator Selection bits
  4891                           ;	FOSC = HS, HS oscillator
  4892                           ;	Watchdog Timer Enable bit
  4893                           ;	WDTE = OFF, WDT disabled
  4894                           ;	Power-up Timer Enable bit
  4895                           ;	PWRTE = OFF, PWRT disabled
  4896                           ;	FLASH Program Memory Code Protection bits
  4897                           ;	CP = OFF, Code protection off
  4898                           ;	Brown-out Reset Enable bit
  4899                           ;	BOREN = OFF, BOR disabled
  4900                           ;	Low Voltage In-Circuit Serial Programming Enable bit
  4901                           ;	LVP = ON, RB3/PGM pin has PGM function; low-voltage programming enabled
  4902                           ;	Data EE Memory Code Protection
  4903                           ;	CPD = OFF, Code Protection off
  4904                           ;	FLASH Program Memory Write Enable
  4905                           ;	WRT = OFF, Unprotected program memory may not be written to by EECON control
  4906                           ;	In-Circuit Debugger Mode bit
  4907                           ;	DEBUG = 0x1, unprogrammed default
  4908     2007                     	org	8199
  4909     2007  3DBA               	dw	15802

Data Sizes:
    Strings     18
    Constant    0
    Data        0
    BSS         30
    Persistent  0
    Stack       0

Auto Spaces:
    Space          Size  Autos    Used
    COMMON           14     14      14
    BANK0            80     56      69
    BANK1            80      8      25
    BANK3            96      0       0
    BANK2            96      0       0

Pointer List with Targets:

    lcd_string@str	PTR const unsigned char  size(2) Largest target is 9
		 -> lcd_print@buffer(BANK0[4]), STR_1(CODE[2]), STR_2(CODE[3]), STR_4(CODE[9]), 

    UART_SendString@str	PTR const unsigned char  size(1) Largest target is 4
		 -> STR_3(CODE[4]), 


Critical Paths under _main in COMMON

    None.

Critical Paths under _isr in COMMON

    _isr->___xxtofl
    i1_lcd_string->i1_lcd_data
    i1_lcd_data->i1_lcd_nibble
    i1_lcd_command->i1_lcd_nibble
    ___lwdiv->___lwmod
    ___flmul->___xxtofl
    ___fldiv->___xxtofl
    _UART_SendString->_UART_SendChar

Critical Paths under _main in BANK0

    None.

Critical Paths under _isr in BANK0

    _isr->___fldiv
    _lcd_print->___fltol
    ___fltol->___flmul
    ___fldiv->___flmul

Critical Paths under _main in BANK1

    _main->_lcd_string
    _lcd_string->_lcd_data
    _lcd_data->_lcd_nibble
    _lcd_initialise->_lcd_command
    _lcd_command->_lcd_nibble

Critical Paths under _isr in BANK1

    None.

Critical Paths under _main in BANK3

    None.

Critical Paths under _isr in BANK3

    None.

Critical Paths under _main in BANK2

    None.

Critical Paths under _isr in BANK2

    None.

Call Graph Tables:

 ---------------------------------------------------------------------------------
 (Depth) Function   	        Calls       Base Space   Used Autos Params    Refs
 ---------------------------------------------------------------------------------
 (0) _main                                                 0     0      0     862
                          _UART_Init
                         _adc_config
                        _lcd_command
                     _lcd_initialise
                         _lcd_string
 ---------------------------------------------------------------------------------
 (1) _lcd_string                                           4     1      3     708
                                              4 BANK1      4     1      3
                           _lcd_data
 ---------------------------------------------------------------------------------
 (2) _lcd_data                                             2     2      0      66
                                              2 BANK1      2     2      0
                         _lcd_nibble
 ---------------------------------------------------------------------------------
 (1) _lcd_initialise                                       2     2      0      88
                                              5 BANK1      2     2      0
                        _lcd_command
                         _lcd_nibble
 ---------------------------------------------------------------------------------
 (2) _lcd_command                                          3     3      0      66
                                              2 BANK1      3     3      0
                         _lcd_nibble
 ---------------------------------------------------------------------------------
 (3) _lcd_nibble                                           2     2      0      22
                                              0 BANK1      2     2      0
 ---------------------------------------------------------------------------------
 (1) _adc_config                                           0     0      0       0
 ---------------------------------------------------------------------------------
 (1) _UART_Init                                            0     0      0       0
 ---------------------------------------------------------------------------------
 Estimated maximum stack depth 3
 ---------------------------------------------------------------------------------
 (Depth) Function   	        Calls       Base Space   Used Autos Params    Refs
 ---------------------------------------------------------------------------------
 (4) _isr                                                  4     4      0    8833
                                             52 BANK0      4     4      0
                    _UART_SendString
                            ___fldiv
                            ___flmul
                           ___xxtofl
                           _adc_read
                          _lcd_print
 ---------------------------------------------------------------------------------
 (5) _lcd_print                                           10     6      4    4493
                                             36 BANK0     10     6      4
                            ___flmul
                            ___fltol
                            ___lwdiv
                            ___lwmod
                      i1_lcd_command
                       i1_lcd_string
 ---------------------------------------------------------------------------------
 (6) i1_lcd_string                                         4     1      3     364
                                              4 COMMON     4     1      3
                         i1_lcd_data
 ---------------------------------------------------------------------------------
 (7) i1_lcd_data                                           2     2      0      66
                                              2 COMMON     2     2      0
                       i1_lcd_nibble
 ---------------------------------------------------------------------------------
 (6) i1_lcd_command                                        3     3      0      66
                                              2 COMMON     3     3      0
                       i1_lcd_nibble
 ---------------------------------------------------------------------------------
 (8) i1_lcd_nibble                                         2     2      0      22
                                              0 COMMON     2     2      0
 ---------------------------------------------------------------------------------
 (6) ___lwmod                                              5     1      4     463
                                              0 COMMON     5     1      4
 ---------------------------------------------------------------------------------
 (6) ___lwdiv                                              7     3      4     466
                                              5 COMMON     7     3      4
                            ___lwmod (ARG)
 ---------------------------------------------------------------------------------
 (6) ___fltol                                             10     6      4     305
                                             26 BANK0     10     6      4
                            ___flmul (ARG)
 ---------------------------------------------------------------------------------
 (6) ___flmul                                             26    18      8    2569
                                              0 BANK0     26    18      8
                          __Umul8_16
                           ___xxtofl (ARG)
 ---------------------------------------------------------------------------------
 (7) __Umul8_16                                            9     7      2     799
                                              0 COMMON     9     7      2
 ---------------------------------------------------------------------------------
 (5) _adc_read                                             2     0      2       0
                                              0 COMMON     2     0      2
 ---------------------------------------------------------------------------------
 (5) ___xxtofl                                            14    10      4     398
                                              0 COMMON    14    10      4
 ---------------------------------------------------------------------------------
 (5) ___fldiv                                             26    18      8    1273
                                             26 BANK0     26    18      8
                            ___flmul (ARG)
                           ___xxtofl (ARG)
 ---------------------------------------------------------------------------------
 (5) _UART_SendString                                      1     1      0     100
                                              1 COMMON     1     1      0
                      _UART_SendChar
 ---------------------------------------------------------------------------------
 (6) _UART_SendChar                                        1     1      0      22
                                              0 COMMON     1     1      0
 ---------------------------------------------------------------------------------
 Estimated maximum stack depth 8
 ---------------------------------------------------------------------------------

 Call Graph Graphs:

 _main (ROOT)
   _UART_Init
   _adc_config
   _lcd_command
     _lcd_nibble
   _lcd_initialise
     _lcd_command
     _lcd_nibble
   _lcd_string
     _lcd_data
       _lcd_nibble

 _isr (ROOT)
   _UART_SendString
     _UART_SendChar
   ___fldiv
     ___flmul (ARG)
       __Umul8_16
       ___xxtofl (ARG)
     ___xxtofl (ARG)
   ___flmul
   ___xxtofl
   _adc_read
   _lcd_print
     ___flmul
     ___fltol
       ___flmul (ARG)
     ___lwdiv
       ___lwmod (ARG)
     ___lwmod
     i1_lcd_command
       i1_lcd_nibble
     i1_lcd_string
       i1_lcd_data
         i1_lcd_nibble

 Address spaces:
Name               Size   Autos  Total    Cost      Usage
BITCOMMON            E      0       0       0        0.0%
EEDATA             100      0       0       0        0.0%
NULL                 0      0       0       0        0.0%
CODE                 0      0       0       0        0.0%
COMMON               E      E       E       1      100.0%
BITSFR0              0      0       0       1        0.0%
SFR0                 0      0       0       1        0.0%
BITSFR1              0      0       0       2        0.0%
SFR1                 0      0       0       2        0.0%
STACK                0      0       0       2        0.0%
ABS                  0      0      6C       3        0.0%
BITBANK0            50      0       0       4        0.0%
BITSFR3              0      0       0       4        0.0%
SFR3                 0      0       0       4        0.0%
BANK0               50     38      45       5       86.2%
BITSFR2              0      0       0       5        0.0%
SFR2                 0      0       0       5        0.0%
BITBANK1            50      0       0       6        0.0%
BANK1               50      8      19       7       31.2%
BITBANK3            60      0       0       8        0.0%
BANK3               60      0       0       9        0.0%
BITBANK2            60      0       0      10        0.0%
BANK2               60      0       0      11        0.0%
DATA                 0      0      6C      12        0.0%


Microchip Technology PIC Macro Assembler V2.46 build 20240104201356 
Symbol Table                                                                                   Tue Feb 11 15:25:51 2025

           ___fldiv@aexp 0053             ___fldiv@bexp 0052                        pc 0002  
           lcd_data@data 00B4             ___fldiv@sign 004B                       l81 0EF2  
                     l90 0FFF                       l75 0E80                       l93 0D8E  
                     l78 0F1C                       l87 0EA4                       fsr 0004  
    __Umul8_16@word_mpld 0076                      l121 0DAD                      l115 07FB  
                    l116 07FB                      _PR2 0092                      _isr 06AA  
                    fsr0 0004                      indf 0000               i1_lcd_data 0DFC  
           ___flmul@aexp 0032             ___flmul@bexp 0033             ___flmul@sign 002D  
           ___flmul@temp 0038             ___flmul@prod 0034             ___fltol@exp1 0043  
                   l1311 0E6E                     l1313 0E6F                     l1315 0E76  
                   l1317 0E79                     l1309 0E61                     l1341 0EF9  
                   l1343 0F12                     l1345 0ECF                     l1601 0E98  
                   l1339 0EF6                     l1611 0FBC                     l1347 0ED2  
                   l1603 0E9E                     l1621 0D86                     l1613 0FC3  
                   l1605 0F9B                     l1349 0EEB                     l1615 0FD0  
                   l1607 0FA5                     l1617 0FD6                     l1609 0FAB  
                   l1619 0FF5                     l1661 0D9F                     l1901 07CE  
                   l1671 0DAA                     l1663 0DA0                     l1911 07EF  
                   l1903 07D4                     l1665 0DA1                     l1657 0D99  
                   l1913 07F3                     l1905 07E1                     l1667 0DA4  
                   l1659 0D9D                     l1915 07F5                     l1907 07E6  
                   l1669 0DA7                     l1597 0E81                     l1917 07F7  
                   l1909 07EB                     l1599 0E85                     l1919 07F8  
                   l1893 07C0                     l1895 07C4                     l1897 07C6  
                   l1899 07C9                     ?_isr 0070                     STR_1 0820  
                   STR_2 081D                     STR_3 0819                     STR_4 0810  
                   u1255 0F06                     u1265 0EDF                     u2417 0EEF  
                   u2507 0E7D                     u2427 0FA1                     u1900 0EA4  
                   u2437 0FB1                     u1901 0EA3                     u2447 0FC0  
                   u2457 0FCD                     u2467 0FDA                     u2477 0FFB  
                   u2487 0F18                     u2497 0E73                     i1l81 0E1A  
                   i1l75 0DDC                     i1l78 0E5D                     i1l87 0E3A  
                   i1l96 0DB9                     i1l99 0DC3                     _TXIF 0064  
                   _main 07C0                     _read 0060                     btemp 007E  
                   start 0012              lcd_string@i 00B8          ___fldiv@new_exp 004C  
                  ??_isr 0054           i1lcd_data@data 0073        UART_SendChar@data 0070  
          ___fltol@sign1 0042                    ?_main 0070          __end_of___fldiv 053E  
        __end_of___flmul 036F          __end_of___fltol 07C0                    _T2CON 0012  
        __end_of___lwdiv 0F9B                    i1l102 06A9                    i1l110 073B  
                  i1l124 0D90                    i1l133 0DFB                    i1l127 0D98  
                  i1l420 07AA                    i1l413 07BF                    i1l423 07BF  
        __end_of___lwmod 0F57                    i1l509 0F56                    i1l622 02DE  
                  i1l616 036E                    i1l635 0EB9                    i1l660 0560  
                  i1l637 0ECB                    i1l662 05F5                    i1l592 04B7  
                  i1l576 03C5                    i1l673 05BF                    i1l578 053D  
                  i1l674 05CB                    i1l499 0F9A                    i1l598 0529  
                  _SPBRG 0099                    _PORTD 0008                    _TRISB 0086  
                  _TRISD 0088                    _TRISE 0089                    _TXREG 0019  
                  _count 005E         ?_UART_SendString 0070                    pclath 000A  
                  status 0003                    wtemp0 007E          __initialization 0015  
           i1_lcd_nibble 0DC4             __end_of_main 07FF             i1_lcd_string 0E1B  
                 ??_main 00B9           lcd_command@cmd 00B5              ?i1_lcd_data 0070  
      lcd_print@int_read 004C                   _ADCON0 001F                   _ADCON1 009F  
                 _ADRESH 001E                   _ADRESL 009E         __end_of_adc_read 0DC4  
                 i1l1301 0DCE                   i1l1303 0DCF                   i1l1321 0EA8  
                 i1l1401 0F69                   i1l1305 0DD4                   i1l1323 0EAF  
                 i1l1411 0F89                   i1l1403 0F6D                   i1l1307 0DD7  
                 i1l1325 0EB3                   i1l1501 014E                   i1l1413 0F90  
                 i1l1405 0F71                   i1l1421 0F23                   i1l1333 0DFD  
                 i1l1351 0D90                   i1l1327 0EC2                   i1l1319 0EA6  
                 i1l1511 01BB                   i1l1503 015C                   i1l1407 0F82  
                 i1l1415 0F96                   i1l1431 0F3F                   i1l1423 0F26  
                 i1l1335 0E00                   u200_20 03EB                   i1l1353 0D96  
                 u200_21 03EA                   i1l1329 0EC7                   i1l1521 0262  
                 i1l1513 01D8                   i1l1505 0179                   i1l1441 002A  
                 i1l1361 075C                   i1l1409 0F88                   i1l1433 0F45  
                 i1l1425 0F2D                   i1l1337 0E15                   i1l1531 02AE  
                 i1l1523 028A                   i1l1515 0203                   i1l1507 0187  
                 i1l1451 003D                   i1l1443 002F                   i1l1371 077E  
                 i1l1363 076F                   i1l1355 0748                   i1l1435 0F4C  
                 i1l1427 0F31                   i1l1419 0F1D                   i1l1701 03A8  
                 i1l1541 02C3                   i1l1533 02AF                   i1l1525 0293  
                 i1l1517 0211                   i1l1509 01A4                   i1l1461 0059  
                 i1l1453 0042                   i1l1445 0033                   i1l1381 0798  
                 i1l1365 0770                   i1l1357 0753                   i1l1429 0F35  
                 i1l1437 0F52                   i1l1703 03AD                   i1l1711 03BD  
                 i1l1623 0DAE                   i1l1551 02E8                   i1l1543 02C7  
                 i1l1535 02B8                   i1l1527 02A1                   i1l1519 023C  
                 i1l1471 006C                   i1l1463 005D                   i1l1455 004A  
                 i1l1447 0037                   i1l1391 07B4                   i1l1367 0778  
                 i1l1631 05F6                   u201_20 0425                   u121_20 0EB3  
                 i1l1801 0520                   u201_21 0424                   i1l1713 03CD  
                 i1l1721 03E6                   i1l1705 03B2                   i1l1625 0DB8  
                 u121_21 0EB2                   i1l1561 0326                   i1l1553 02F6  
                 i1l1545 02DB                   i1l1529 02AA                   i1l1537 02BE  
                 i1l1481 0088                   i1l1473 0074                   i1l1465 0061  
                 i1l1457 004C                   i1l1449 0038                   i1l1377 0786  
                 i1l1369 077A                   i1l1393 0F57                   i1l1641 0687  
                 i1l1633 0665                   i1l1651 0DDF                   i1l1811 0537  
                 i1l1803 0528                   i1l1731 040E                   i1l1723 03EB  
                 i1l1715 03D9                   i1l1707 03BA                   i1l1627 0DBD  
                 i1l1571 0358                   i1l1563 0331                   i1l1555 02FA  
                 i1l1539 02C2                   i1l1491 00C7                   i1l1475 0076  
                 i1l1467 0062                   i1l1459 0054                   i1l1387 079F  
                 i1l1379 078F                   i1l1395 0F59                   i1l1299 0DC5  
                 i1l1643 068D                   i1l1635 066B                   i1l1653 0DEB  
                 i1l1805 052D                   i1l1741 0437                   i1l1733 0416  
                 i1l1717 03DD                   i1l1709 03BB                   i1l1821 0544  
                 i1l1573 035C                   i1l1565 0340                   i1l1557 0313  
                 i1l1549 02E3                   i1l1493 00E3                   i1l1485 0091  
                 i1l1477 007E                   i1l1469 0067                   i1l1389 07AF  
                 i1l1397 0F5F                   i1l1645 0698                   i1l1637 0676  
                 i1l1655 0DEF                   i1l1807 0531                   i1l1751 0458  
                 i1l1743 043B                   i1l1735 041E                   i1l1727 03F4  
                 i1l1831 0571                   i1l1823 0548                   i1l1575 035D  
                 i1l1567 034A                   i1l1559 0319                   i1l1495 010D  
                 i1l1487 009F                   i1l1479 0083                   i1l1399 0F62  
                 i1l1583 0E3C                   i1l1591 0E1D                   i1l1647 069E  
                 i1l1639 067C                   u210_20 0487                   u130_20 077E  
                 i1l1649 0DDE                   i1l1809 0533                   u210_21 0486  
                 i1l1761 047A                   i1l1753 0466                   i1l1745 043C  
                 i1l1737 0420                   i1l1729 0406                   i1l1681 037D  
                 i1l1673 036F                   i1l1841 058C                   i1l1833 0574  
                 i1l1825 0558                   i1l1569 034C                   i1l1577 0362  
                 i1l1497 0129                   i1l1489 00AC                   u130_21 077D  
                 i1l1585 0E3F                   i1l1593 0E30                   i1l1763 0483  
                 i1l1771 0497                   i1l1739 0425                   i1l1747 0445  
                 i1l1755 046A                   i1l1683 0382                   i1l1691 0392  
                 i1l1675 0374                   i1l1851 05B9                   i1l1843 059A  
                 i1l1835 0578                   i1l1827 0568                   i1l1819 053F  
                 i1l1579 0366                   i1l1499 0145                   i1l1587 0E54  
                 i1l1595 0E34                   i1l1773 049B                   i1l1765 0487  
                 i1l1757 0470                   i1l1749 0457                   u202_25 0427  
                 i1l1693 039A                   i1l1685 0387                   i1l1677 0378  
                 i1l1861 05EC                   i1l1853 05C3                   i1l1845 05A3  
                 i1l1837 0581                   u122_25 0EBA                   i1l1589 0E1B  
                 i1l1791 04EC                   i1l1783 04BC                   i1l1775 049C  
                 i1l1767 0488                   i1l1759 0478                   i1l1695 039F  
                 i1l1687 038F                   i1l1679 037C                   i1l1863 05ED  
                 i1l1855 05CD                   i1l1847 05AA                   i1l1839 0588  
                 i1l1871 06B4                   u123_20 0EC7                   u131_20 0785  
                 i1l1785 04C1                   i1l1793 04F2                   i1l1777 04A0  
                 i1l1769 0491                   i1l1697 03A3                   i1l1689 0390  
                 i1l1857 05E3                   i1l1849 05B5                   u123_21 0EC6  
                 u131_21 0784                   i1l1881 06D3                   i1l1873 06B5  
                 i1l1795 04FF                   i1l1787 04CF                   i1l1779 04B4  
                 i1l1699 03A7                   i1l1859 05E8                   i1l1891 073A  
                 i1l1883 0725                   i1l1875 06BC                   i1l1867 06AA  
                 i1l1797 050D                   i1l1789 04D3                   u211_25 048A  
                 u203_25 0430                   i1l1885 0732                   i1l1877 06C9  
                 i1l1869 06AE                   i1l1799 051C                   i1l1887 0736  
                 i1l1879 06CF                   u220_20 051C                   u212_20 049B  
                 u204_20 043B                   u140_20 0F71                   u220_21 051B  
                 u212_21 049A                   u204_21 043A                   u140_21 0F70  
                 i1l1889 0737                   u220_25 0518                   u132_25 0787  
                 u124_25 0E09                   u221_20 0531                   u213_20 04A0  
                 u133_20 0797                   u221_21 0530                   u213_21 049F  
                 u133_21 0796                   u205_25 043E                   u141_25 0F72  
                 u214_20 04B4                   u206_20 0457                   u230_20 05B9  
                 u222_20 0544                   u134_20 079E                   u142_20 0F82  
                 u150_20 0F52                   u214_21 04B3                   u206_21 0456  
                 u230_21 05B8                   u222_21 0543                   u134_21 079D  
                 u142_21 0F81                   u150_21 0F51                   u206_25 0453  
                 u142_25 0F7E                   u127_20 0D96                   u215_20 04BB  
                 u207_20 0470                   u231_20 05BF                   u223_20 0548  
                 u151_20 0037                   u127_21 0D95                   u215_21 04BA  
                 u207_21 046F                   u231_21 05BE                   u223_21 0547  
                 u151_21 0036                   u135_25 07A1                   u143_25 0F8A  
                 u216_20 04C1                   u208_20 0478                   u232_20 05C3  
                 u224_20 0568                   u152_20 003D                   u136_20 07AF  
                 u128_20 0753                   u144_20 0F96                   u240_20 06D3  
                 u216_21 04C0                   u208_21 0477                   u232_21 05C2  
                 u224_21 0567                   u160_21 00F1                   u152_21 003C  
                 u136_21 07AE                   u128_21 0752                   u144_21 0F95  
                 u240_21 06D2                   u160_22 00F8                   u160_23 00FF  
                 u217_20 04D3                   u233_20 05D8                   u153_20 0042  
                 u137_20 07B4                   u129_20 076A                   u145_20 0F23  
                 _INTCON 000B                   u217_21 04D2                   u161_21 011B  
                 u153_21 0041                   u137_21 07B3                   u145_21 0F22  
                 u161_22 0122                   u161_23 0129                   u209_25 047C  
                 u233_25 05D3                   u225_25 0579                   u129_25 0765  
                 u218_20 04E2                   u234_20 05E8                   u226_20 0587  
                 u170_20 0248                   u154_20 0061                   u138_20 0F5F  
                 u234_21 05E7                   u226_21 0586                   u162_21 0137  
                 u154_21 0060                   u138_21 0F5E                   u162_22 013E  
                 u162_23 0145                   u218_25 04DD                   u170_25 0243  
                 u146_25 0F27                   u219_20 04FF                   u235_20 05EC  
                 u155_20 0067                   u147_20 0F35                   u219_21 04FE  
                 u235_21 05EB                   u171_21 0254                   u155_21 0066  
                 u147_21 0F34                   u171_22 025B                   u171_23 0262  
                 u219_25 04FB                   u227_25 059B                   u163_25 0147  
                 u139_25 0F63                   u251_27 0E17                   u228_20 05A9  
                 u180_20 02DB                   u172_20 0270                   u156_20 006C  
                 u148_20 0F3F                   u236_20 06AE                   u228_21 05A8  
                 u180_21 02DA                   u164_21 016B                   u156_21 006B  
                 u148_21 0F3E                   u236_21 06AD                   u164_22 0172  
                 u164_23 0179                   u172_25 026B                   u148_25 0F3B  
                 u252_27 0E58                   u181_20 02E2                   u157_20 0083  
                 u237_20 06BC                   u181_21 02E1                   u173_21 027C  
                 u165_21 0196                   u157_21 0082                   u237_21 06BB  
                 u173_22 0283                   u165_22 019D                   u173_23 028A  
                 u165_23 01A4                   u229_25 05AE                   u149_25 0F46  
                 u253_27 0DD1                   u182_20 02E8                   u158_20 0088  
                 u238_20 06C6                   u182_21 02E7                   u158_21 0087  
                 u238_21 06C2                   u174_25 028C                   u166_25 01A6  
                 u254_27 0DD9                   u191_20 0DBD                   u183_20 02FA  
                 u191_21 0DBC                   u183_21 02F9                   u167_21 01CA  
                 u159_21 00D5                   u167_22 01D1                   u159_22 00DC  
                 u167_23 01D8                   u159_23 00E3                   u239_24 06C9  
                 u175_25 02A3                   u192_20 0DFB                   u184_20 0309  
                 u176_20 02AE                   u192_21 0DFA                   u176_21 02AD  
                 u168_21 01F5                   u168_22 01FC                   u168_23 0203  
                 u184_25 0304                   u193_20 037C                   u185_20 0326  
                 u193_21 037B                   u185_21 0325                   u169_21 0220  
                 u169_22 0227                   u169_23 022E                   u185_25 0322  
                 u177_25 02B1                   u194_20 0382                   u186_20 0340  
                 u178_20 02C2                   u194_21 0381                   u186_21 033F  
                 u178_21 02C1                   u186_25 033C                   u195_20 0387  
                 u187_20 035C                   u179_20 02C7                   u195_21 0386  
                 u187_21 035B                   u179_21 02C6                   u196_20 03A7  
                 u196_21 03A6                   u188_25 0E48                   u197_20 03AD  
                 u189_20 0E3A                   u197_21 03AC                   u189_21 0E39  
                 u198_20 03B2                   u198_21 03B1                   u199_20 03CD  
                 u199_21 03CC                   _TRISC6 043E                   _TRISC7 043F  
       __end_of___xxtofl 05F6            lcd_print@read 0044         __end_of_lcd_data 0EF3  
      __end_of_UART_Init 0DAE                ??___fldiv 0042                ??___flmul 0028  
              ??___fltol 003E                ??___lwdiv 0079                ??___lwmod 0074  
                 _result 0058           lcd_nibble@data 00B2                   saved_w 007E  
       ??_lcd_initialise 00B6    __end_of_UART_SendChar 0D99            lcd_string@num 00B7  
           ___xxtofl@arg 007A            lcd_string@str 00B5             ___xxtofl@exp 0079  
           ___xxtofl@val 0070          _uart_data_ready 0063  __end_of__initialization 0026  
             ___fltol@f1 003A            i1_lcd_command 0E3B           __pcstackCOMMON 0070  
             _adc_config 0D86               __pbssBANK0 0058               __pbssBANK1 00A0  
         ?i1_lcd_command 0070        __end_of__Umul8_16 0ECC               __pmaintext 07C0  
             __pintentry 0004                ?_adc_read 0070                ?___xxtofl 0070  
             _lcd_nibble 0E5E                ?_lcd_data 0070               _lcd_string 0E81  
             __stringtab 0800          i1lcd_string@num 0076          i1lcd_string@str 0074  
     UART_SendString@str 0071              ?_adc_config 0070        __end_of_lcd_print 06AA  
                ___fldiv 036F                  ___flmul 002A                  ___fltol 0748  
                ___lwdiv 0F57                  ___lwmod 0F1D               ??_adc_read 0072  
                __ptext1 0E81                  __ptext2 0ECC                  __ptext3 0F9B  
                __ptext4 0EF3                  __ptext5 0E5E                  __ptext6 0D86  
                __ptext7 0D99                  __ptext8 06AA                  __ptext9 05F6  
                _leportb 0062               ??___xxtofl 0074             ??i1_lcd_data 0072  
             ??_lcd_data 00B3                  clrloop0 0D7F     end_of_initialization 0026  
        ??i1_lcd_command 0072         i1lcd_command@cmd 0074                _RCSTAbits 0018  
     __end_ofi1_lcd_data 0E1B               _uart_index 0064                _UART_Init 0D99  
              _PORTBbits 0006                _PORTEbits 0009            ___xxtofl@sign 0078  
            ?_lcd_nibble 0070              ___fldiv@grs 004E              ___fldiv@rem 0047  
            ?_lcd_string 00B5              ___flmul@grs 002E                _TXSTAbits 0098  
          ??_lcd_command 00B3         i1lcd_nibble@data 0071               ?_UART_Init 0070  
           _controle_led 005C      start_initialization 0015              __end_of_isr 0748  
          i1lcd_string@i 0077      __end_of_lcd_command 0F1D                __Umul8_16 0EA5  
      ??_UART_SendString 0071                ___fldiv@a 003A                ___fldiv@b 003E  
              ___flmul@a 0024                ___flmul@b 0020                ___latbits 0002  
          __pcstackBANK0 0020            __pcstackBANK1 00B1         ___lwdiv@dividend 0077  
          ?i1_lcd_nibble 0070             ??_adc_config 00B1                 ?___fldiv 003A  
          ?i1_lcd_string 0074                 ?___flmul 0020                 ?___fltol 003A  
             ?__Umul8_16 0070                 ?___lwdiv 0075                 ?___lwmod 0070  
            ??_UART_Init 00B1                __pstrings 0800                _lcd_print 05F6  
       ___lwdiv@quotient 0079            _UART_SendChar 0D8F       __end_of_adc_config 0D8F  
      interrupt_function 0004                clear_ram0 0D7E                 _PIE1bits 008C  
            _lcd_command 0EF3           ??i1_lcd_nibble 0070                 _PIR1bits 000C  
         ??i1_lcd_string 0077               ?_lcd_print 0044               _ADCON0bits 001F  
            __stringbase 080F             ??_lcd_nibble 00B1             ??_lcd_string 00B8  
         ?_UART_SendChar 0070          lcd_print@buffer 0048    __end_ofi1_lcd_command 0E5E  
     __end_of_lcd_nibble 0E81              ??__Umul8_16 0072       __end_of_lcd_string 0EA5  
     __end_of__stringtab 0810                 _adc_read 0DAE                 ___xxtofl 053E  
        ___lwdiv@divisor 0075          ___lwdiv@counter 007B                 __ptext10 0E1B  
               __ptext11 0DFC                 __ptext20 053E                 __ptext12 0E3B  
               __ptext21 036F                 __ptext13 0DC4                 __ptext22 0DDD  
               __ptext14 0F1D                 __ptext23 0D8F                 __ptext15 0F57  
               __ptext16 0748                 __ptext17 002A                 __ptext18 0EA5  
               __ptext19 0DAE                 _lcd_data 0ECC          _UART_SendString 0DDD  
         _lcd_initialise 0F9B       _uart_received_data 00A0              ??_lcd_print 007E  
             _INTCONbits 000B     __end_ofi1_lcd_nibble 0DDD          ??_UART_SendChar 0070  
   __end_ofi1_lcd_string 0E3B                 intlevel1 0000         ___lwmod@dividend 0072  
 __end_of_lcd_initialise 1000                stringcode 080A   __Umul8_16@multiplicand 0070  
             _OPTION_REG 0081          ___lwmod@divisor 0070          ___lwmod@counter 0074  
               stringdir 080A                 stringtab 0800  __end_of_UART_SendString 0DFC  
        ?_lcd_initialise 0070     __Umul8_16@multiplier 0078             ?_lcd_command 0070  
      __Umul8_16@product 0074  
